

Microchip MPLAB XC8 Assembler V2.31 build 20201012212115 
                                                                                               Thu Mar 11 17:49:45 2021

Microchip MPLAB XC8 C Compiler v2.31 (Free license) build 20201012212115 Og1 
     1                           	processor	16F887
     2                           	pagewidth 120
     3                           	opt	flic
     4                           	psect	strings,global,class=STRING,delta=2,noexec
     5                           	psect	cinit,global,class=CODE,merge=1,delta=2
     6                           	psect	bssCOMMON,global,class=COMMON,space=1,delta=1,noexec
     7                           	psect	bssBANK0,global,class=BANK0,space=1,delta=1,noexec
     8                           	psect	cstackCOMMON,global,class=COMMON,space=1,delta=1,noexec
     9                           	psect	cstackBANK0,global,class=BANK0,space=1,delta=1,noexec
    10                           	psect	maintext,global,class=CODE,split=1,delta=2
    11                           	psect	text1,local,class=CODE,merge=1,delta=2
    12                           	psect	text2,local,class=CODE,merge=1,delta=2
    13                           	psect	text3,local,class=CODE,merge=1,delta=2
    14                           	psect	text4,local,class=CODE,merge=1,delta=2
    15                           	psect	text5,local,class=CODE,merge=1,delta=2,group=1
    16                           	psect	text6,local,class=CODE,merge=1,delta=2
    17                           	psect	text7,local,class=CODE,merge=1,delta=2
    18                           	psect	text8,local,class=CODE,merge=1,delta=2
    19                           	psect	text9,local,class=CODE,merge=1,delta=2
    20                           	psect	text10,local,class=CODE,merge=1,delta=2
    21                           	psect	text11,local,class=CODE,merge=1,delta=2
    22                           	psect	text12,local,class=CODE,merge=1,delta=2
    23                           	psect	text13,local,class=CODE,merge=1,delta=2
    24                           	psect	text14,local,class=CODE,merge=1,delta=2
    25                           	psect	text15,local,class=CODE,merge=1,delta=2
    26                           	psect	text16,local,class=CODE,merge=1,delta=2
    27                           	psect	text17,local,class=CODE,merge=1,delta=2
    28                           	psect	text18,local,class=CODE,merge=1,delta=2
    29                           	psect	text19,local,class=CODE,merge=1,delta=2
    30                           	psect	intentry,global,class=CODE,delta=2
    31                           	psect	text20,local,class=CODE,merge=1,delta=2
    32                           	psect	config,global,abs,ovrld,class=CONFIG,space=4,delta=2,noexec
    33                           	dabs	1,0x7E,2
    34  0000                     
    35                           ; Version 2.20
    36                           ; Generated 12/02/2020 GMT
    37                           ; 
    38                           ; Copyright © 2020, Microchip Technology Inc. and its subsidiaries ("Microchip")
    39                           ; All rights reserved.
    40                           ; 
    41                           ; This software is developed by Microchip Technology Inc. and its subsidiaries ("Microch
      +                          ip").
    42                           ; 
    43                           ; Redistribution and use in source and binary forms, with or without modification, are
    44                           ; permitted provided that the following conditions are met:
    45                           ; 
    46                           ;     1. Redistributions of source code must retain the above copyright notice, this lis
      +                          t of
    47                           ;        conditions and the following disclaimer.
    48                           ; 
    49                           ;     2. Redistributions in binary form must reproduce the above copyright notice, this 
      +                          list
    50                           ;        of conditions and the following disclaimer in the documentation and/or other
    51                           ;        materials provided with the distribution.
    52                           ; 
    53                           ;     3. Microchip's name may not be used to endorse or promote products derived from th
      +                          is
    54                           ;        software without specific prior written permission.
    55                           ; 
    56                           ; THIS SOFTWARE IS PROVIDED BY MICROCHIP "AS IS" AND ANY EXPRESS OR IMPLIED WARRANTIES,
    57                           ; INCLUDING, BUT NOT LIMITED TO, THE IMPLIED WARRANTIES OF MERCHANTABILITY AND FITNESS F
      +                          OR
    58                           ; PURPOSE ARE DISCLAIMED.  IN NO EVENT SHALL MICROCHIP BE LIABLE FOR ANY DIRECT, INDIREC
      +                          T,
    59                           ; INCIDENTAL, SPECIAL, EXEMPLARY, OR CONSEQUENTIAL DAMAGES (INCLUDING BUT NOT LIMITED TO
    60                           ; PROCUREMENT OF SUBSTITUTE GOODS OR SERVICES; LOSS OF USE, DATA OR PROFITS; OR BUSINESS
    61                           ; INTERRUPTION) HOWSOEVER CAUSED AND ON ANY THEORY OF LIABILITY, WHETHER IN CONTRACT, ST
      +                          RICT
    62                           ; LIABILITY, OR TORT (INCLUDING NEGLIGENCE OR OTHERWISE) ARISING IN ANY WAY OUT OF THE U
      +                          SE OF
    63                           ; THIS SOFTWARE, EVEN IF ADVISED OF THE POSSIBILITY OF SUCH DAMAGE.
    64                           ; 
    65                           ; 
    66                           ; Code-generator required, PIC16F887 Definitions
    67                           ; 
    68                           ; SFR Addresses
    69  0000                     	;# 
    70  0001                     	;# 
    71  0002                     	;# 
    72  0003                     	;# 
    73  0004                     	;# 
    74  0005                     	;# 
    75  0006                     	;# 
    76  0007                     	;# 
    77  0008                     	;# 
    78  0009                     	;# 
    79  000A                     	;# 
    80  000B                     	;# 
    81  000C                     	;# 
    82  000D                     	;# 
    83  000E                     	;# 
    84  000E                     	;# 
    85  000F                     	;# 
    86  0010                     	;# 
    87  0011                     	;# 
    88  0012                     	;# 
    89  0013                     	;# 
    90  0014                     	;# 
    91  0015                     	;# 
    92  0015                     	;# 
    93  0016                     	;# 
    94  0017                     	;# 
    95  0018                     	;# 
    96  0019                     	;# 
    97  001A                     	;# 
    98  001B                     	;# 
    99  001B                     	;# 
   100  001C                     	;# 
   101  001D                     	;# 
   102  001E                     	;# 
   103  001F                     	;# 
   104  0081                     	;# 
   105  0085                     	;# 
   106  0086                     	;# 
   107  0087                     	;# 
   108  0088                     	;# 
   109  0089                     	;# 
   110  008C                     	;# 
   111  008D                     	;# 
   112  008E                     	;# 
   113  008F                     	;# 
   114  0090                     	;# 
   115  0091                     	;# 
   116  0092                     	;# 
   117  0093                     	;# 
   118  0093                     	;# 
   119  0093                     	;# 
   120  0094                     	;# 
   121  0095                     	;# 
   122  0096                     	;# 
   123  0097                     	;# 
   124  0098                     	;# 
   125  0099                     	;# 
   126  009A                     	;# 
   127  009B                     	;# 
   128  009C                     	;# 
   129  009D                     	;# 
   130  009E                     	;# 
   131  009F                     	;# 
   132  0105                     	;# 
   133  0107                     	;# 
   134  0108                     	;# 
   135  0109                     	;# 
   136  010C                     	;# 
   137  010C                     	;# 
   138  010D                     	;# 
   139  010E                     	;# 
   140  010F                     	;# 
   141  0185                     	;# 
   142  0187                     	;# 
   143  0188                     	;# 
   144  0189                     	;# 
   145  018C                     	;# 
   146  018D                     	;# 
   147  0000                     	;# 
   148  0001                     	;# 
   149  0002                     	;# 
   150  0003                     	;# 
   151  0004                     	;# 
   152  0005                     	;# 
   153  0006                     	;# 
   154  0007                     	;# 
   155  0008                     	;# 
   156  0009                     	;# 
   157  000A                     	;# 
   158  000B                     	;# 
   159  000C                     	;# 
   160  000D                     	;# 
   161  000E                     	;# 
   162  000E                     	;# 
   163  000F                     	;# 
   164  0010                     	;# 
   165  0011                     	;# 
   166  0012                     	;# 
   167  0013                     	;# 
   168  0014                     	;# 
   169  0015                     	;# 
   170  0015                     	;# 
   171  0016                     	;# 
   172  0017                     	;# 
   173  0018                     	;# 
   174  0019                     	;# 
   175  001A                     	;# 
   176  001B                     	;# 
   177  001B                     	;# 
   178  001C                     	;# 
   179  001D                     	;# 
   180  001E                     	;# 
   181  001F                     	;# 
   182  0081                     	;# 
   183  0085                     	;# 
   184  0086                     	;# 
   185  0087                     	;# 
   186  0088                     	;# 
   187  0089                     	;# 
   188  008C                     	;# 
   189  008D                     	;# 
   190  008E                     	;# 
   191  008F                     	;# 
   192  0090                     	;# 
   193  0091                     	;# 
   194  0092                     	;# 
   195  0093                     	;# 
   196  0093                     	;# 
   197  0093                     	;# 
   198  0094                     	;# 
   199  0095                     	;# 
   200  0096                     	;# 
   201  0097                     	;# 
   202  0098                     	;# 
   203  0099                     	;# 
   204  009A                     	;# 
   205  009B                     	;# 
   206  009C                     	;# 
   207  009D                     	;# 
   208  009E                     	;# 
   209  009F                     	;# 
   210  0105                     	;# 
   211  0107                     	;# 
   212  0108                     	;# 
   213  0109                     	;# 
   214  010C                     	;# 
   215  010C                     	;# 
   216  010D                     	;# 
   217  010E                     	;# 
   218  010F                     	;# 
   219  0185                     	;# 
   220  0187                     	;# 
   221  0188                     	;# 
   222  0189                     	;# 
   223  018C                     	;# 
   224  018D                     	;# 
   225  0000                     	;# 
   226  0001                     	;# 
   227  0002                     	;# 
   228  0003                     	;# 
   229  0004                     	;# 
   230  0005                     	;# 
   231  0006                     	;# 
   232  0007                     	;# 
   233  0008                     	;# 
   234  0009                     	;# 
   235  000A                     	;# 
   236  000B                     	;# 
   237  000C                     	;# 
   238  000D                     	;# 
   239  000E                     	;# 
   240  000E                     	;# 
   241  000F                     	;# 
   242  0010                     	;# 
   243  0011                     	;# 
   244  0012                     	;# 
   245  0013                     	;# 
   246  0014                     	;# 
   247  0015                     	;# 
   248  0015                     	;# 
   249  0016                     	;# 
   250  0017                     	;# 
   251  0018                     	;# 
   252  0019                     	;# 
   253  001A                     	;# 
   254  001B                     	;# 
   255  001B                     	;# 
   256  001C                     	;# 
   257  001D                     	;# 
   258  001E                     	;# 
   259  001F                     	;# 
   260  0081                     	;# 
   261  0085                     	;# 
   262  0086                     	;# 
   263  0087                     	;# 
   264  0088                     	;# 
   265  0089                     	;# 
   266  008C                     	;# 
   267  008D                     	;# 
   268  008E                     	;# 
   269  008F                     	;# 
   270  0090                     	;# 
   271  0091                     	;# 
   272  0092                     	;# 
   273  0093                     	;# 
   274  0093                     	;# 
   275  0093                     	;# 
   276  0094                     	;# 
   277  0095                     	;# 
   278  0096                     	;# 
   279  0097                     	;# 
   280  0098                     	;# 
   281  0099                     	;# 
   282  009A                     	;# 
   283  009B                     	;# 
   284  009C                     	;# 
   285  009D                     	;# 
   286  009E                     	;# 
   287  009F                     	;# 
   288  0105                     	;# 
   289  0107                     	;# 
   290  0108                     	;# 
   291  0109                     	;# 
   292  010C                     	;# 
   293  010C                     	;# 
   294  010D                     	;# 
   295  010E                     	;# 
   296  010F                     	;# 
   297  0185                     	;# 
   298  0187                     	;# 
   299  0188                     	;# 
   300  0189                     	;# 
   301  018C                     	;# 
   302  018D                     	;# 
   303  0000                     	;# 
   304  0001                     	;# 
   305  0002                     	;# 
   306  0003                     	;# 
   307  0004                     	;# 
   308  0005                     	;# 
   309  0006                     	;# 
   310  0007                     	;# 
   311  0008                     	;# 
   312  0009                     	;# 
   313  000A                     	;# 
   314  000B                     	;# 
   315  000C                     	;# 
   316  000D                     	;# 
   317  000E                     	;# 
   318  000E                     	;# 
   319  000F                     	;# 
   320  0010                     	;# 
   321  0011                     	;# 
   322  0012                     	;# 
   323  0013                     	;# 
   324  0014                     	;# 
   325  0015                     	;# 
   326  0015                     	;# 
   327  0016                     	;# 
   328  0017                     	;# 
   329  0018                     	;# 
   330  0019                     	;# 
   331  001A                     	;# 
   332  001B                     	;# 
   333  001B                     	;# 
   334  001C                     	;# 
   335  001D                     	;# 
   336  001E                     	;# 
   337  001F                     	;# 
   338  0081                     	;# 
   339  0085                     	;# 
   340  0086                     	;# 
   341  0087                     	;# 
   342  0088                     	;# 
   343  0089                     	;# 
   344  008C                     	;# 
   345  008D                     	;# 
   346  008E                     	;# 
   347  008F                     	;# 
   348  0090                     	;# 
   349  0091                     	;# 
   350  0092                     	;# 
   351  0093                     	;# 
   352  0093                     	;# 
   353  0093                     	;# 
   354  0094                     	;# 
   355  0095                     	;# 
   356  0096                     	;# 
   357  0097                     	;# 
   358  0098                     	;# 
   359  0099                     	;# 
   360  009A                     	;# 
   361  009B                     	;# 
   362  009C                     	;# 
   363  009D                     	;# 
   364  009E                     	;# 
   365  009F                     	;# 
   366  0105                     	;# 
   367  0107                     	;# 
   368  0108                     	;# 
   369  0109                     	;# 
   370  010C                     	;# 
   371  010C                     	;# 
   372  010D                     	;# 
   373  010E                     	;# 
   374  010F                     	;# 
   375  0185                     	;# 
   376  0187                     	;# 
   377  0188                     	;# 
   378  0189                     	;# 
   379  018C                     	;# 
   380  018D                     	;# 
   381  001A                     _RCREG	set	26
   382  0019                     _TXREG	set	25
   383  0018                     _RCSTAbits	set	24
   384  0013                     _SSPBUF	set	19
   385  0014                     _SSPCON	set	20
   386  000C                     _PIR1bits	set	12
   387  000B                     _INTCONbits	set	11
   388  0008                     _PORTD	set	8
   389  0007                     _PORTC	set	7
   390  0006                     _PORTB	set	6
   391  0005                     _PORTA	set	5
   392  0005                     _PORTAbits	set	5
   393  0064                     _TXIF	set	100
   394  0063                     _SSPIF	set	99
   395  005E                     _PEIE	set	94
   396  005F                     _GIE	set	95
   397  009A                     _SPBRGH	set	154
   398  0099                     _SPBRG	set	153
   399  008C                     _PIE1bits	set	140
   400  0098                     _TXSTAbits	set	152
   401  0091                     _SSPCON2bits	set	145
   402  0094                     _SSPSTAT	set	148
   403  0093                     _SSPADD	set	147
   404  0091                     _SSPCON2	set	145
   405  0087                     _TRISCbits	set	135
   406  0088                     _TRISD	set	136
   407  0087                     _TRISC	set	135
   408  0086                     _TRISB	set	134
   409  0085                     _TRISA	set	133
   410  0463                     _SSPIE	set	1123
   411  043C                     _TRISC4	set	1084
   412  043B                     _TRISC3	set	1083
   413  0187                     _BAUDCTLbits	set	391
   414  0189                     _ANSELH	set	393
   415  0188                     _ANSEL	set	392
   416                           
   417                           	psect	strings
   418  0348                     __pstrings:
   419  0348                     stringtab:
   420  0348                     __stringtab:
   421  0348                     stringcode:	
   422                           ;	String table - string pointers are 1 byte each
   423                           
   424  0348                     stringdir:
   425  0348  3003               	movlw	high stringdir
   426  0349  008A               	movwf	10
   427  034A  0804               	movf	4,w
   428  034B  0A84               	incf	4,f
   429  034C  0782               	addwf	2,f
   430  034D                     __stringbase:
   431  034D  3400               	retlw	0
   432  034E                     __end_of__stringtab:
   433  034E                     STR_1:
   434  034E  343A               	retlw	58	;':'
   435  034F  3400               	retlw	0
   436  034E                     
   437                           	psect	cinit
   438  000F                     start_initialization:	
   439                           ; #config settings
   440                           
   441  000F                     __initialization:
   442                           
   443                           ; Clear objects allocated to COMMON
   444  000F  01F8               	clrf	__pbssCOMMON& (0+127)
   445  0010  01F9               	clrf	(__pbssCOMMON+1)& (0+127)
   446  0011  01FA               	clrf	(__pbssCOMMON+2)& (0+127)
   447                           
   448                           ; Clear objects allocated to BANK0
   449  0012  1283               	bcf	3,5	;RP0=0, select bank0
   450  0013  1303               	bcf	3,6	;RP1=0, select bank0
   451  0014  01B1               	clrf	__pbssBANK0& (0+127)
   452  0015  01B2               	clrf	(__pbssBANK0+1)& (0+127)
   453  0016  01B3               	clrf	(__pbssBANK0+2)& (0+127)
   454  0017  01B4               	clrf	(__pbssBANK0+3)& (0+127)
   455  0018  01B5               	clrf	(__pbssBANK0+4)& (0+127)
   456  0019  01B6               	clrf	(__pbssBANK0+5)& (0+127)
   457  001A  01B7               	clrf	(__pbssBANK0+6)& (0+127)
   458  001B  01B8               	clrf	(__pbssBANK0+7)& (0+127)
   459  001C                     end_of_initialization:	
   460                           ;End of C runtime variable initialization code
   461                           
   462  001C                     __end_of__initialization:
   463  001C  0183               	clrf	3
   464  001D  120A  118A  295C   	ljmp	_main	;jump to C main() function
   465                           
   466                           	psect	bssCOMMON
   467  0078                     __pbssCOMMON:
   468  0078                     _m:
   469  0078                     	ds	1
   470  0079                     _h:
   471  0079                     	ds	1
   472  007A                     _s:
   473  007A                     	ds	1
   474                           
   475                           	psect	bssBANK0
   476  0031                     __pbssBANK0:
   477  0031                     _time:
   478  0031                     	ds	1
   479  0032                     _EstadoPiloto:
   480  0032                     	ds	1
   481  0033                     _h_d:
   482  0033                     	ds	1
   483  0034                     _h_u:
   484  0034                     	ds	1
   485  0035                     _m_d:
   486  0035                     	ds	1
   487  0036                     _m_u:
   488  0036                     	ds	1
   489  0037                     _s_d:
   490  0037                     	ds	1
   491  0038                     _s_u:
   492  0038                     	ds	1
   493                           
   494                           	psect	cstackCOMMON
   495  0070                     __pcstackCOMMON:
   496  0070                     ?_setup:
   497  0070                     ?_Get_time:	
   498                           ; 1 bytes @ 0x0
   499                           
   500  0070                     ?_SendClock:	
   501                           ; 1 bytes @ 0x0
   502                           
   503  0070                     ?_EUSART_conf:	
   504                           ; 1 bytes @ 0x0
   505                           
   506  0070                     ?_RTC_conf:	
   507                           ; 1 bytes @ 0x0
   508                           
   509  0070                     ?_SetClock:	
   510                           ; 1 bytes @ 0x0
   511                           
   512  0070                     ?_I2C_Master_Start:	
   513                           ; 1 bytes @ 0x0
   514                           
   515  0070                     ?_I2C_Master_Stop:	
   516                           ; 1 bytes @ 0x0
   517                           
   518  0070                     ?_I2C_Master_RepeatedStart:	
   519                           ; 1 bytes @ 0x0
   520                           
   521  0070                     ?_SendChar:	
   522                           ; 1 bytes @ 0x0
   523                           
   524  0070                     ?_SendString:	
   525                           ; 1 bytes @ 0x0
   526                           
   527  0070                     ?_Receive:	
   528                           ; 1 bytes @ 0x0
   529                           
   530  0070                     ??_Receive:	
   531                           ; 1 bytes @ 0x0
   532                           
   533  0070                     ?_main:	
   534                           ; 1 bytes @ 0x0
   535                           
   536  0070                     ?_Decena:	
   537                           ; 1 bytes @ 0x0
   538                           
   539  0070                     ?_Unidad:	
   540                           ; 1 bytes @ 0x0
   541                           
   542  0070                     ?_isr:	
   543                           ; 1 bytes @ 0x0
   544                           
   545  0070                     ??_isr:	
   546                           ; 1 bytes @ 0x0
   547                           
   548  0070                     ?_I2C_Master_Wait:	
   549                           ; 1 bytes @ 0x0
   550                           
   551                           
   552                           ; 1 bytes @ 0x0
   553  0070                     	ds	3
   554  0073                     ??_EUSART_conf:
   555  0073                     ??_I2C_Master_Start:	
   556                           ; 1 bytes @ 0x3
   557                           
   558  0073                     ?_I2C_Master_Write:	
   559                           ; 1 bytes @ 0x3
   560                           
   561  0073                     ??_I2C_Master_Stop:	
   562                           ; 1 bytes @ 0x3
   563                           
   564  0073                     ??_I2C_Master_RepeatedStart:	
   565                           ; 1 bytes @ 0x3
   566                           
   567  0073                     ??_SendChar:	
   568                           ; 1 bytes @ 0x3
   569                           
   570  0073                     ??_Decena:	
   571                           ; 1 bytes @ 0x3
   572                           
   573  0073                     ??_Unidad:	
   574                           ; 1 bytes @ 0x3
   575                           
   576  0073                     ??_I2C_Master_Wait:	
   577                           ; 1 bytes @ 0x3
   578                           
   579  0073                     ??___lldiv:	
   580                           ; 1 bytes @ 0x3
   581                           
   582  0073                     ?_I2C_Master_Read:	
   583                           ; 1 bytes @ 0x3
   584                           
   585  0073                     Unidad@valor:	
   586                           ; 2 bytes @ 0x3
   587                           
   588  0073                     SendChar@X:	
   589                           ; 1 bytes @ 0x3
   590                           
   591  0073                     I2C_Master_Write@d:	
   592                           ; 1 bytes @ 0x3
   593                           
   594  0073                     I2C_Master_Read@a:	
   595                           ; 2 bytes @ 0x3
   596                           
   597                           
   598                           ; 2 bytes @ 0x3
   599  0073                     	ds	1
   600  0074                     ??_I2C_Master_Init:
   601  0074                     ??_SendString:	
   602                           ; 1 bytes @ 0x4
   603                           
   604  0074                     Decena@valor:	
   605                           ; 1 bytes @ 0x4
   606                           
   607                           
   608                           ; 1 bytes @ 0x4
   609  0074                     	ds	1
   610  0075                     ??_RTC_conf:
   611  0075                     ??_SetClock:	
   612                           ; 1 bytes @ 0x5
   613                           
   614  0075                     ??_I2C_Master_Write:	
   615                           ; 1 bytes @ 0x5
   616                           
   617  0075                     ??_I2C_Master_Read:	
   618                           ; 1 bytes @ 0x5
   619                           
   620  0075                     SendString@X:	
   621                           ; 1 bytes @ 0x5
   622                           
   623                           
   624                           ; 1 bytes @ 0x5
   625  0075                     	ds	1
   626  0076                     ??_SendClock:
   627                           
   628                           ; 1 bytes @ 0x6
   629  0076                     	ds	2
   630  0078                     ??_setup:
   631  0078                     ??_main:	
   632                           ; 1 bytes @ 0x8
   633                           
   634                           
   635                           	psect	cstackBANK0
   636  0020                     __pcstackBANK0:	
   637                           ; 1 bytes @ 0x8
   638                           
   639  0020                     ?___lldiv:
   640  0020                     I2C_Master_Read@temp:	
   641                           ; 4 bytes @ 0x0
   642                           
   643  0020                     ___lldiv@divisor:	
   644                           ; 2 bytes @ 0x0
   645                           
   646                           
   647                           ; 4 bytes @ 0x0
   648  0020                     	ds	2
   649  0022                     ??_Get_time:
   650                           
   651                           ; 1 bytes @ 0x2
   652  0022                     	ds	2
   653  0024                     ___lldiv@dividend:
   654                           
   655                           ; 4 bytes @ 0x4
   656  0024                     	ds	4
   657  0028                     ___lldiv@quotient:
   658                           
   659                           ; 4 bytes @ 0x8
   660  0028                     	ds	4
   661  002C                     ___lldiv@counter:
   662                           
   663                           ; 1 bytes @ 0xC
   664  002C                     	ds	1
   665  002D                     ?_I2C_Master_Init:
   666  002D                     I2C_Master_Init@c:	
   667                           ; 1 bytes @ 0xD
   668                           
   669                           
   670                           ; 4 bytes @ 0xD
   671  002D                     	ds	4
   672                           
   673                           	psect	maintext
   674  015C                     __pmaintext:	
   675 ;;
   676 ;;Main: autosize = 0, tempsize = 0, incstack = 0, save=0
   677 ;;
   678 ;; *************** function _main *****************
   679 ;; Defined at:
   680 ;;		line 59 in file "I2C_Adafruit.c"
   681 ;; Parameters:    Size  Location     Type
   682 ;;		None
   683 ;; Auto vars:     Size  Location     Type
   684 ;;		None
   685 ;; Return value:  Size  Location     Type
   686 ;;                  1    wreg      void 
   687 ;; Registers used:
   688 ;;		wreg, fsr0l, fsr0h, status,2, status,0, pclath, cstack
   689 ;; Tracked objects:
   690 ;;		On entry : B00/0
   691 ;;		On exit  : 0/0
   692 ;;		Unchanged: 0/0
   693 ;; Data sizes:     COMMON   BANK0   BANK1   BANK3   BANK2
   694 ;;      Params:         0       0       0       0       0
   695 ;;      Locals:         0       0       0       0       0
   696 ;;      Temps:          0       0       0       0       0
   697 ;;      Totals:         0       0       0       0       0
   698 ;;Total ram usage:        0 bytes
   699 ;; Hardware stack levels required when called:    6
   700 ;; This function calls:
   701 ;;		_Get_time
   702 ;;		_SendClock
   703 ;;		_setup
   704 ;; This function is called by:
   705 ;;		Startup code after reset
   706 ;; This function uses a non-reentrant model
   707 ;;
   708                           
   709                           
   710                           ;psect for function _main
   711  015C                     _main:
   712  015C                     l1292:	
   713                           ;incstack = 0
   714                           ; Regs used in _main: [wreg-fsr0h+status,2+status,0+pclath+cstack]
   715                           
   716                           
   717                           ;I2C_Adafruit.c: 60:     setup();
   718  015C  120A  118A  21E3  120A  118A  	fcall	_setup
   719  0161                     l87:	
   720                           ;I2C_Adafruit.c: 61:     while (1) {
   721                           
   722                           
   723                           ;I2C_Adafruit.c: 62:         Get_time();
   724  0161  120A  118A  2020  120A  118A  	fcall	_Get_time
   725  0166                     l1294:
   726                           
   727                           ;I2C_Adafruit.c: 63:         SendClock();
   728  0166  120A  118A  20F9  120A  118A  	fcall	_SendClock
   729  016B                     l1296:
   730                           
   731                           ;I2C_Adafruit.c: 65:         if (EstadoPiloto == 'A') {
   732  016B  3041               	movlw	65
   733  016C  1283               	bcf	3,5	;RP0=0, select bank0
   734  016D  1303               	bcf	3,6	;RP1=0, select bank0
   735  016E  0632               	xorwf	_EstadoPiloto,w
   736  016F  1D03               	btfss	3,2
   737  0170  2972               	goto	u621
   738  0171  2973               	goto	u620
   739  0172                     u621:
   740  0172  2976               	goto	l1300
   741  0173                     u620:
   742  0173                     l1298:
   743                           
   744                           ;I2C_Adafruit.c: 66:             PORTAbits.RA3 = 1;
   745  0173  1585               	bsf	5,3	;volatile
   746                           
   747                           ;I2C_Adafruit.c: 67:             PORTAbits.RA2 = 1;
   748  0174  1505               	bsf	5,2	;volatile
   749                           
   750                           ;I2C_Adafruit.c: 68:         } else if (EstadoPiloto == 'B') {
   751  0175  2961               	goto	l87
   752  0176                     l1300:
   753  0176  3042               	movlw	66
   754  0177  0632               	xorwf	_EstadoPiloto,w
   755  0178  1D03               	btfss	3,2
   756  0179  297B               	goto	u631
   757  017A  297C               	goto	u630
   758  017B                     u631:
   759  017B  297F               	goto	l1304
   760  017C                     u630:
   761  017C                     l1302:
   762                           
   763                           ;I2C_Adafruit.c: 69:             PORTAbits.RA3 = 1;
   764  017C  1585               	bsf	5,3	;volatile
   765                           
   766                           ;I2C_Adafruit.c: 70:             PORTAbits.RA2 = 0;
   767  017D  1105               	bcf	5,2	;volatile
   768                           
   769                           ;I2C_Adafruit.c: 71:         } else if (EstadoPiloto == 'C') {
   770  017E  2961               	goto	l87
   771  017F                     l1304:
   772  017F  3043               	movlw	67
   773  0180  0632               	xorwf	_EstadoPiloto,w
   774  0181  1D03               	btfss	3,2
   775  0182  2984               	goto	u641
   776  0183  2985               	goto	u640
   777  0184                     u641:
   778  0184  2988               	goto	l1308
   779  0185                     u640:
   780  0185                     l1306:
   781                           
   782                           ;I2C_Adafruit.c: 72:             PORTAbits.RA3 = 0;
   783  0185  1185               	bcf	5,3	;volatile
   784                           
   785                           ;I2C_Adafruit.c: 73:             PORTAbits.RA2 = 1;
   786  0186  1505               	bsf	5,2	;volatile
   787                           
   788                           ;I2C_Adafruit.c: 74:         } else if (EstadoPiloto == 'D') {
   789  0187  2961               	goto	l87
   790  0188                     l1308:
   791  0188  3044               	movlw	68
   792  0189  0632               	xorwf	_EstadoPiloto,w
   793  018A  1D03               	btfss	3,2
   794  018B  298D               	goto	u651
   795  018C  298E               	goto	u650
   796  018D                     u651:
   797  018D  2991               	goto	l94
   798  018E                     u650:
   799  018E                     l1310:
   800                           
   801                           ;I2C_Adafruit.c: 75:             PORTAbits.RA3 = 0;
   802  018E  1185               	bcf	5,3	;volatile
   803                           
   804                           ;I2C_Adafruit.c: 76:             PORTAbits.RA2 = 0;
   805  018F  1105               	bcf	5,2	;volatile
   806                           
   807                           ;I2C_Adafruit.c: 77:         } else {
   808  0190  2961               	goto	l87
   809  0191                     l94:
   810                           
   811                           ;I2C_Adafruit.c: 78:             PORTAbits.RA3 = PORTAbits.RA3;
   812  0191  1985               	btfsc	5,3	;volatile
   813  0192  2994               	goto	u661
   814  0193  2998               	goto	u660
   815  0194                     u661:
   816  0194  1283               	bcf	3,5	;RP0=0, select bank0
   817  0195  1303               	bcf	3,6	;RP1=0, select bank0
   818  0196  1585               	bsf	5,3	;volatile
   819  0197  299B               	goto	u674
   820  0198                     u660:
   821  0198  1283               	bcf	3,5	;RP0=0, select bank0
   822  0199  1303               	bcf	3,6	;RP1=0, select bank0
   823  019A  1185               	bcf	5,3	;volatile
   824  019B                     u674:
   825                           
   826                           ;I2C_Adafruit.c: 79:             PORTAbits.RA2 = PORTAbits.RA2;
   827  019B  1905               	btfsc	5,2	;volatile
   828  019C  299E               	goto	u681
   829  019D  29A2               	goto	u680
   830  019E                     u681:
   831  019E  1283               	bcf	3,5	;RP0=0, select bank0
   832  019F  1303               	bcf	3,6	;RP1=0, select bank0
   833  01A0  1505               	bsf	5,2	;volatile
   834  01A1  29A5               	goto	u694
   835  01A2                     u680:
   836  01A2  1283               	bcf	3,5	;RP0=0, select bank0
   837  01A3  1303               	bcf	3,6	;RP1=0, select bank0
   838  01A4  1105               	bcf	5,2	;volatile
   839  01A5                     u694:
   840  01A5  2961               	goto	l87
   841  01A6  120A  118A  280C   	ljmp	start
   842  01A9                     __end_of_main:
   843                           
   844                           	psect	text1
   845  01E3                     __ptext1:	
   846 ;; *************** function _setup *****************
   847 ;; Defined at:
   848 ;;		line 89 in file "I2C_Adafruit.c"
   849 ;; Parameters:    Size  Location     Type
   850 ;;		None
   851 ;; Auto vars:     Size  Location     Type
   852 ;;		None
   853 ;; Return value:  Size  Location     Type
   854 ;;                  1    wreg      void 
   855 ;; Registers used:
   856 ;;		wreg, status,2, status,0, pclath, cstack
   857 ;; Tracked objects:
   858 ;;		On entry : 0/0
   859 ;;		On exit  : 0/0
   860 ;;		Unchanged: 0/0
   861 ;; Data sizes:     COMMON   BANK0   BANK1   BANK3   BANK2
   862 ;;      Params:         0       0       0       0       0
   863 ;;      Locals:         0       0       0       0       0
   864 ;;      Temps:          0       0       0       0       0
   865 ;;      Totals:         0       0       0       0       0
   866 ;;Total ram usage:        0 bytes
   867 ;; Hardware stack levels used:    1
   868 ;; Hardware stack levels required when called:    5
   869 ;; This function calls:
   870 ;;		_EUSART_conf
   871 ;;		_I2C_Master_Init
   872 ;;		_RTC_conf
   873 ;;		_SetClock
   874 ;; This function is called by:
   875 ;;		_main
   876 ;; This function uses a non-reentrant model
   877 ;;
   878                           
   879                           
   880                           ;psect for function _setup
   881  01E3                     _setup:
   882  01E3                     l1264:	
   883                           ;incstack = 0
   884                           ; Regs used in _setup: [wreg+status,2+status,0+pclath+cstack]
   885                           
   886                           
   887                           ;I2C_Adafruit.c: 90:     ANSEL = 0;
   888  01E3  1683               	bsf	3,5	;RP0=1, select bank3
   889  01E4  1703               	bsf	3,6	;RP1=1, select bank3
   890  01E5  0188               	clrf	8	;volatile
   891                           
   892                           ;I2C_Adafruit.c: 91:     ANSELH = 0;
   893  01E6  0189               	clrf	9	;volatile
   894                           
   895                           ;I2C_Adafruit.c: 93:     TRISA = 0;
   896  01E7  1683               	bsf	3,5	;RP0=1, select bank1
   897  01E8  1303               	bcf	3,6	;RP1=0, select bank1
   898  01E9  0185               	clrf	5	;volatile
   899                           
   900                           ;I2C_Adafruit.c: 94:     TRISB = 0;
   901  01EA  0186               	clrf	6	;volatile
   902                           
   903                           ;I2C_Adafruit.c: 95:     TRISC = 0;
   904  01EB  0187               	clrf	7	;volatile
   905                           
   906                           ;I2C_Adafruit.c: 96:     TRISD = 0;
   907  01EC  0188               	clrf	8	;volatile
   908  01ED                     l1266:
   909                           
   910                           ;I2C_Adafruit.c: 97:     TRISCbits.TRISC7 = 1;
   911  01ED  1787               	bsf	7,7	;volatile
   912                           
   913                           ;I2C_Adafruit.c: 98:     PORTA = 0;
   914  01EE  1283               	bcf	3,5	;RP0=0, select bank0
   915  01EF  1303               	bcf	3,6	;RP1=0, select bank0
   916  01F0  0185               	clrf	5	;volatile
   917                           
   918                           ;I2C_Adafruit.c: 99:     PORTB = 0;
   919  01F1  0186               	clrf	6	;volatile
   920                           
   921                           ;I2C_Adafruit.c: 100:     PORTC = 0;
   922  01F2  0187               	clrf	7	;volatile
   923                           
   924                           ;I2C_Adafruit.c: 101:     PORTD = 0;
   925  01F3  0188               	clrf	8	;volatile
   926  01F4                     l1268:
   927                           
   928                           ;I2C_Adafruit.c: 102:     INTCONbits.GIE = 1;
   929  01F4  178B               	bsf	11,7	;volatile
   930  01F5                     l1270:
   931                           
   932                           ;I2C_Adafruit.c: 103:     INTCONbits.PEIE = 1;
   933  01F5  170B               	bsf	11,6	;volatile
   934  01F6                     l1272:
   935                           
   936                           ;I2C_Adafruit.c: 104:     EUSART_conf();
   937  01F6  120A  118A  22C2  120A  118A  	fcall	_EUSART_conf
   938  01FB                     l1274:
   939                           
   940                           ;I2C_Adafruit.c: 105:     I2C_Master_Init(100000);
   941  01FB  3000               	movlw	0
   942  01FC  1283               	bcf	3,5	;RP0=0, select bank0
   943  01FD  1303               	bcf	3,6	;RP1=0, select bank0
   944  01FE  00B0               	movwf	I2C_Master_Init@c+3
   945  01FF  3001               	movlw	1
   946  0200  00AF               	movwf	I2C_Master_Init@c+2
   947  0201  3086               	movlw	134
   948  0202  00AE               	movwf	I2C_Master_Init@c+1
   949  0203  30A0               	movlw	160
   950  0204  00AD               	movwf	I2C_Master_Init@c
   951  0205  120A  118A  21A9  120A  118A  	fcall	_I2C_Master_Init
   952  020A                     l1276:
   953                           
   954                           ;I2C_Adafruit.c: 106:     RTC_conf();
   955  020A  120A  118A  227D  120A  118A  	fcall	_RTC_conf
   956  020F                     l1278:
   957                           
   958                           ;I2C_Adafruit.c: 107:     EstadoPiloto = 0;
   959  020F  1283               	bcf	3,5	;RP0=0, select bank0
   960  0210  1303               	bcf	3,6	;RP1=0, select bank0
   961  0211  01B2               	clrf	_EstadoPiloto
   962                           
   963                           ;I2C_Adafruit.c: 108:     SetClock();
   964  0212  120A  118A  2218  120A  118A  	fcall	_SetClock
   965  0217                     l101:
   966  0217  0008               	return
   967  0218                     __end_of_setup:
   968                           
   969                           	psect	text2
   970  0218                     __ptext2:	
   971 ;; *************** function _SetClock *****************
   972 ;; Defined at:
   973 ;;		line 153 in file "I2C_Adafruit.c"
   974 ;; Parameters:    Size  Location     Type
   975 ;;		None
   976 ;; Auto vars:     Size  Location     Type
   977 ;;		None
   978 ;; Return value:  Size  Location     Type
   979 ;;                  1    wreg      void 
   980 ;; Registers used:
   981 ;;		wreg, status,2, status,0, pclath, cstack
   982 ;; Tracked objects:
   983 ;;		On entry : 0/0
   984 ;;		On exit  : 0/0
   985 ;;		Unchanged: 0/0
   986 ;; Data sizes:     COMMON   BANK0   BANK1   BANK3   BANK2
   987 ;;      Params:         0       0       0       0       0
   988 ;;      Locals:         0       0       0       0       0
   989 ;;      Temps:          0       0       0       0       0
   990 ;;      Totals:         0       0       0       0       0
   991 ;;Total ram usage:        0 bytes
   992 ;; Hardware stack levels used:    1
   993 ;; Hardware stack levels required when called:    4
   994 ;; This function calls:
   995 ;;		_I2C_Master_Start
   996 ;;		_I2C_Master_Stop
   997 ;;		_I2C_Master_Write
   998 ;; This function is called by:
   999 ;;		_setup
  1000 ;; This function uses a non-reentrant model
  1001 ;;
  1002                           
  1003                           
  1004                           ;psect for function _SetClock
  1005  0218                     _SetClock:
  1006  0218                     l1242:	
  1007                           ;incstack = 0
  1008                           ; Regs used in _SetClock: [wreg+status,2+status,0+pclath+cstack]
  1009                           
  1010                           
  1011                           ;I2C_Adafruit.c: 154:     I2C_Master_Start();
  1012  0218  120A  118A  2336  120A  118A  	fcall	_I2C_Master_Start
  1013                           
  1014                           ;I2C_Adafruit.c: 155:     I2C_Master_Write(0b11010000);
  1015  021D  30D0               	movlw	208
  1016  021E  00F3               	movwf	I2C_Master_Write@d
  1017  021F  3000               	movlw	0
  1018  0220  00F4               	movwf	I2C_Master_Write@d+1
  1019  0221  120A  118A  2319  120A  118A  	fcall	_I2C_Master_Write
  1020                           
  1021                           ;I2C_Adafruit.c: 156:     I2C_Master_Write(0x00);
  1022  0226  3000               	movlw	0
  1023  0227  00F3               	movwf	I2C_Master_Write@d
  1024  0228  00F4               	movwf	I2C_Master_Write@d+1
  1025  0229  120A  118A  2319  120A  118A  	fcall	_I2C_Master_Write
  1026                           
  1027                           ;I2C_Adafruit.c: 157:     I2C_Master_Write(0x00);
  1028  022E  3000               	movlw	0
  1029  022F  00F3               	movwf	I2C_Master_Write@d
  1030  0230  00F4               	movwf	I2C_Master_Write@d+1
  1031  0231  120A  118A  2319  120A  118A  	fcall	_I2C_Master_Write
  1032                           
  1033                           ;I2C_Adafruit.c: 158:     I2C_Master_Write(0x38);
  1034  0236  3038               	movlw	56
  1035  0237  00F3               	movwf	I2C_Master_Write@d
  1036  0238  3000               	movlw	0
  1037  0239  00F4               	movwf	I2C_Master_Write@d+1
  1038  023A  120A  118A  2319  120A  118A  	fcall	_I2C_Master_Write
  1039                           
  1040                           ;I2C_Adafruit.c: 159:     I2C_Master_Write(0b00000000);
  1041  023F  3000               	movlw	0
  1042  0240  00F3               	movwf	I2C_Master_Write@d
  1043  0241  00F4               	movwf	I2C_Master_Write@d+1
  1044  0242  120A  118A  2319  120A  118A  	fcall	_I2C_Master_Write
  1045                           
  1046                           ;I2C_Adafruit.c: 160:     I2C_Master_Stop();
  1047  0247  120A  118A  232D  120A  118A  	fcall	_I2C_Master_Stop
  1048  024C                     l116:
  1049  024C  0008               	return
  1050  024D                     __end_of_SetClock:
  1051                           
  1052                           	psect	text3
  1053  027D                     __ptext3:	
  1054 ;; *************** function _RTC_conf *****************
  1055 ;; Defined at:
  1056 ;;		line 115 in file "I2C_Adafruit.c"
  1057 ;; Parameters:    Size  Location     Type
  1058 ;;		None
  1059 ;; Auto vars:     Size  Location     Type
  1060 ;;		None
  1061 ;; Return value:  Size  Location     Type
  1062 ;;                  1    wreg      void 
  1063 ;; Registers used:
  1064 ;;		wreg, status,2, status,0, pclath, cstack
  1065 ;; Tracked objects:
  1066 ;;		On entry : 0/0
  1067 ;;		On exit  : 0/0
  1068 ;;		Unchanged: 0/0
  1069 ;; Data sizes:     COMMON   BANK0   BANK1   BANK3   BANK2
  1070 ;;      Params:         0       0       0       0       0
  1071 ;;      Locals:         0       0       0       0       0
  1072 ;;      Temps:          0       0       0       0       0
  1073 ;;      Totals:         0       0       0       0       0
  1074 ;;Total ram usage:        0 bytes
  1075 ;; Hardware stack levels used:    1
  1076 ;; Hardware stack levels required when called:    4
  1077 ;; This function calls:
  1078 ;;		_I2C_Master_Start
  1079 ;;		_I2C_Master_Stop
  1080 ;;		_I2C_Master_Write
  1081 ;; This function is called by:
  1082 ;;		_setup
  1083 ;; This function uses a non-reentrant model
  1084 ;;
  1085                           
  1086                           
  1087                           ;psect for function _RTC_conf
  1088  027D                     _RTC_conf:
  1089  027D                     l1240:	
  1090                           ;incstack = 0
  1091                           ; Regs used in _RTC_conf: [wreg+status,2+status,0+pclath+cstack]
  1092                           
  1093                           
  1094                           ;I2C_Adafruit.c: 116:     I2C_Master_Start();
  1095  027D  120A  118A  2336  120A  118A  	fcall	_I2C_Master_Start
  1096                           
  1097                           ;I2C_Adafruit.c: 117:     I2C_Master_Write(0b11010000);
  1098  0282  30D0               	movlw	208
  1099  0283  00F3               	movwf	I2C_Master_Write@d
  1100  0284  3000               	movlw	0
  1101  0285  00F4               	movwf	I2C_Master_Write@d+1
  1102  0286  120A  118A  2319  120A  118A  	fcall	_I2C_Master_Write
  1103                           
  1104                           ;I2C_Adafruit.c: 118:     I2C_Master_Write(0x07);
  1105  028B  3007               	movlw	7
  1106  028C  00F3               	movwf	I2C_Master_Write@d
  1107  028D  3000               	movlw	0
  1108  028E  00F4               	movwf	I2C_Master_Write@d+1
  1109  028F  120A  118A  2319  120A  118A  	fcall	_I2C_Master_Write
  1110                           
  1111                           ;I2C_Adafruit.c: 120:     I2C_Master_Write(0x13);
  1112  0294  3013               	movlw	19
  1113  0295  00F3               	movwf	I2C_Master_Write@d
  1114  0296  3000               	movlw	0
  1115  0297  00F4               	movwf	I2C_Master_Write@d+1
  1116  0298  120A  118A  2319  120A  118A  	fcall	_I2C_Master_Write
  1117                           
  1118                           ;I2C_Adafruit.c: 121:     I2C_Master_Stop();
  1119  029D  120A  118A  232D  120A  118A  	fcall	_I2C_Master_Stop
  1120  02A2                     l104:
  1121  02A2  0008               	return
  1122  02A3                     __end_of_RTC_conf:
  1123                           
  1124                           	psect	text4
  1125  01A9                     __ptext4:	
  1126 ;; *************** function _I2C_Master_Init *****************
  1127 ;; Defined at:
  1128 ;;		line 16 in file "I2C.c"
  1129 ;; Parameters:    Size  Location     Type
  1130 ;;  c               4   13[BANK0 ] const unsigned long 
  1131 ;; Auto vars:     Size  Location     Type
  1132 ;;		None
  1133 ;; Return value:  Size  Location     Type
  1134 ;;                  1    wreg      void 
  1135 ;; Registers used:
  1136 ;;		wreg, status,2, status,0, pclath, cstack
  1137 ;; Tracked objects:
  1138 ;;		On entry : 0/0
  1139 ;;		On exit  : 0/0
  1140 ;;		Unchanged: 0/0
  1141 ;; Data sizes:     COMMON   BANK0   BANK1   BANK3   BANK2
  1142 ;;      Params:         0       4       0       0       0
  1143 ;;      Locals:         0       0       0       0       0
  1144 ;;      Temps:          4       0       0       0       0
  1145 ;;      Totals:         4       4       0       0       0
  1146 ;;Total ram usage:        8 bytes
  1147 ;; Hardware stack levels used:    1
  1148 ;; Hardware stack levels required when called:    3
  1149 ;; This function calls:
  1150 ;;		___lldiv
  1151 ;; This function is called by:
  1152 ;;		_setup
  1153 ;; This function uses a non-reentrant model
  1154 ;;
  1155                           
  1156                           
  1157                           ;psect for function _I2C_Master_Init
  1158  01A9                     _I2C_Master_Init:
  1159  01A9                     l1228:	
  1160                           ;incstack = 0
  1161                           ; Regs used in _I2C_Master_Init: [wreg+status,2+status,0+pclath+cstack]
  1162                           
  1163                           
  1164                           ;I2C.c: 16: void I2C_Master_Init(const unsigned long c);I2C.c: 17: {;I2C.c: 18:     SSPC
      +                          ON = 0b00101000;
  1165  01A9  3028               	movlw	40
  1166  01AA  1283               	bcf	3,5	;RP0=0, select bank0
  1167  01AB  1303               	bcf	3,6	;RP1=0, select bank0
  1168  01AC  0094               	movwf	20	;volatile
  1169  01AD                     l1230:
  1170                           
  1171                           ;I2C.c: 19:     SSPCON2 = 0;
  1172  01AD  1683               	bsf	3,5	;RP0=1, select bank1
  1173  01AE  1303               	bcf	3,6	;RP1=0, select bank1
  1174  01AF  0191               	clrf	17	;volatile
  1175  01B0                     l1232:
  1176                           
  1177                           ;I2C.c: 20:     SSPADD = (4000000/(4*c))-1;
  1178  01B0  1283               	bcf	3,5	;RP0=0, select bank0
  1179  01B1  1303               	bcf	3,6	;RP1=0, select bank0
  1180  01B2  082D               	movf	I2C_Master_Init@c,w
  1181  01B3  00F4               	movwf	??_I2C_Master_Init
  1182  01B4  082E               	movf	I2C_Master_Init@c+1,w
  1183  01B5  00F5               	movwf	??_I2C_Master_Init+1
  1184  01B6  082F               	movf	I2C_Master_Init@c+2,w
  1185  01B7  00F6               	movwf	??_I2C_Master_Init+2
  1186  01B8  0830               	movf	I2C_Master_Init@c+3,w
  1187  01B9  00F7               	movwf	??_I2C_Master_Init+3
  1188  01BA  3002               	movlw	2
  1189  01BB                     u605:
  1190  01BB  1003               	clrc
  1191  01BC  0DF4               	rlf	??_I2C_Master_Init,f
  1192  01BD  0DF5               	rlf	??_I2C_Master_Init+1,f
  1193  01BE  0DF6               	rlf	??_I2C_Master_Init+2,f
  1194  01BF  0DF7               	rlf	??_I2C_Master_Init+3,f
  1195  01C0                     u600:
  1196  01C0  3EFF               	addlw	-1
  1197  01C1  1D03               	skipz
  1198  01C2  29BB               	goto	u605
  1199  01C3  0877               	movf	??_I2C_Master_Init+3,w
  1200  01C4  00A3               	movwf	___lldiv@divisor+3
  1201  01C5  0876               	movf	??_I2C_Master_Init+2,w
  1202  01C6  00A2               	movwf	___lldiv@divisor+2
  1203  01C7  0875               	movf	??_I2C_Master_Init+1,w
  1204  01C8  00A1               	movwf	___lldiv@divisor+1
  1205  01C9  0874               	movf	??_I2C_Master_Init,w
  1206  01CA  00A0               	movwf	___lldiv@divisor
  1207  01CB  3000               	movlw	0
  1208  01CC  00A7               	movwf	___lldiv@dividend+3
  1209  01CD  303D               	movlw	61
  1210  01CE  00A6               	movwf	___lldiv@dividend+2
  1211  01CF  3009               	movlw	9
  1212  01D0  00A5               	movwf	___lldiv@dividend+1
  1213  01D1  3000               	movlw	0
  1214  01D2  00A4               	movwf	___lldiv@dividend
  1215  01D3  120A  118A  2091  120A  118A  	fcall	___lldiv
  1216  01D8  1283               	bcf	3,5	;RP0=0, select bank0
  1217  01D9  1303               	bcf	3,6	;RP1=0, select bank0
  1218  01DA  0820               	movf	?___lldiv,w
  1219  01DB  3EFF               	addlw	255
  1220  01DC  1683               	bsf	3,5	;RP0=1, select bank1
  1221  01DD  1303               	bcf	3,6	;RP1=0, select bank1
  1222  01DE  0093               	movwf	19	;volatile
  1223  01DF                     l1234:
  1224                           
  1225                           ;I2C.c: 21:     SSPSTAT = 0;
  1226  01DF  0194               	clrf	20	;volatile
  1227  01E0                     l1236:
  1228                           
  1229                           ;I2C.c: 22:     TRISCbits.TRISC3 = 1;
  1230  01E0  1587               	bsf	7,3	;volatile
  1231  01E1                     l1238:
  1232                           
  1233                           ;I2C.c: 23:     TRISCbits.TRISC4 = 1;
  1234  01E1  1607               	bsf	7,4	;volatile
  1235  01E2                     l155:
  1236  01E2  0008               	return
  1237  01E3                     __end_of_I2C_Master_Init:
  1238                           
  1239                           	psect	text5
  1240  0091                     __ptext5:	
  1241 ;; *************** function ___lldiv *****************
  1242 ;; Defined at:
  1243 ;;		line 5 in file "C:\Program Files\Microchip\xc8\v2.31\pic\sources\c90\common\__lldiv.c"
  1244 ;; Parameters:    Size  Location     Type
  1245 ;;  divisor         4    0[BANK0 ] unsigned long 
  1246 ;;  dividend        4    4[BANK0 ] unsigned long 
  1247 ;; Auto vars:     Size  Location     Type
  1248 ;;  quotient        4    8[BANK0 ] unsigned long 
  1249 ;;  counter         1   12[BANK0 ] unsigned char 
  1250 ;; Return value:  Size  Location     Type
  1251 ;;                  4    0[BANK0 ] unsigned long 
  1252 ;; Registers used:
  1253 ;;		wreg, status,2, status,0
  1254 ;; Tracked objects:
  1255 ;;		On entry : 0/0
  1256 ;;		On exit  : 0/0
  1257 ;;		Unchanged: 0/0
  1258 ;; Data sizes:     COMMON   BANK0   BANK1   BANK3   BANK2
  1259 ;;      Params:         0       8       0       0       0
  1260 ;;      Locals:         0       5       0       0       0
  1261 ;;      Temps:          1       0       0       0       0
  1262 ;;      Totals:         1      13       0       0       0
  1263 ;;Total ram usage:       14 bytes
  1264 ;; Hardware stack levels used:    1
  1265 ;; Hardware stack levels required when called:    2
  1266 ;; This function calls:
  1267 ;;		Nothing
  1268 ;; This function is called by:
  1269 ;;		_I2C_Master_Init
  1270 ;; This function uses a non-reentrant model
  1271 ;;
  1272                           
  1273                           
  1274                           ;psect for function ___lldiv
  1275  0091                     ___lldiv:
  1276  0091                     l1204:	
  1277                           ;incstack = 0
  1278                           ; Regs used in ___lldiv: [wreg+status,2+status,0]
  1279                           
  1280  0091  3000               	movlw	0
  1281  0092  1283               	bcf	3,5	;RP0=0, select bank0
  1282  0093  1303               	bcf	3,6	;RP1=0, select bank0
  1283  0094  00AB               	movwf	___lldiv@quotient+3
  1284  0095  3000               	movlw	0
  1285  0096  00AA               	movwf	___lldiv@quotient+2
  1286  0097  3000               	movlw	0
  1287  0098  00A9               	movwf	___lldiv@quotient+1
  1288  0099  3000               	movlw	0
  1289  009A  00A8               	movwf	___lldiv@quotient
  1290  009B  0823               	movf	___lldiv@divisor+3,w
  1291  009C  0422               	iorwf	___lldiv@divisor+2,w
  1292  009D  0421               	iorwf	___lldiv@divisor+1,w
  1293  009E  0420               	iorwf	___lldiv@divisor,w
  1294  009F  1903               	skipnz
  1295  00A0  28A2               	goto	u531
  1296  00A1  28A3               	goto	u530
  1297  00A2                     u531:
  1298  00A2  28F0               	goto	l1224
  1299  00A3                     u530:
  1300  00A3                     l1206:
  1301  00A3  01AC               	clrf	___lldiv@counter
  1302  00A4  0AAC               	incf	___lldiv@counter,f
  1303  00A5  28B3               	goto	l1210
  1304  00A6                     l1208:
  1305  00A6  3001               	movlw	1
  1306  00A7  00F3               	movwf	??___lldiv
  1307  00A8                     u545:
  1308  00A8  1003               	clrc
  1309  00A9  0DA0               	rlf	___lldiv@divisor,f
  1310  00AA  0DA1               	rlf	___lldiv@divisor+1,f
  1311  00AB  0DA2               	rlf	___lldiv@divisor+2,f
  1312  00AC  0DA3               	rlf	___lldiv@divisor+3,f
  1313  00AD  0BF3               	decfsz	??___lldiv,f
  1314  00AE  28A8               	goto	u545
  1315  00AF  3001               	movlw	1
  1316  00B0  00F3               	movwf	??___lldiv
  1317  00B1  0873               	movf	??___lldiv,w
  1318  00B2  07AC               	addwf	___lldiv@counter,f
  1319  00B3                     l1210:
  1320  00B3  1FA3               	btfss	___lldiv@divisor+3,7
  1321  00B4  28B6               	goto	u551
  1322  00B5  28B7               	goto	u550
  1323  00B6                     u551:
  1324  00B6  28A6               	goto	l1208
  1325  00B7                     u550:
  1326  00B7                     l1212:
  1327  00B7  3001               	movlw	1
  1328  00B8  00F3               	movwf	??___lldiv
  1329  00B9                     u565:
  1330  00B9  1003               	clrc
  1331  00BA  0DA8               	rlf	___lldiv@quotient,f
  1332  00BB  0DA9               	rlf	___lldiv@quotient+1,f
  1333  00BC  0DAA               	rlf	___lldiv@quotient+2,f
  1334  00BD  0DAB               	rlf	___lldiv@quotient+3,f
  1335  00BE  0BF3               	decfsz	??___lldiv,f
  1336  00BF  28B9               	goto	u565
  1337  00C0                     l1214:
  1338  00C0  0823               	movf	___lldiv@divisor+3,w
  1339  00C1  0227               	subwf	___lldiv@dividend+3,w
  1340  00C2  1D03               	skipz
  1341  00C3  28CE               	goto	u575
  1342  00C4  0822               	movf	___lldiv@divisor+2,w
  1343  00C5  0226               	subwf	___lldiv@dividend+2,w
  1344  00C6  1D03               	skipz
  1345  00C7  28CE               	goto	u575
  1346  00C8  0821               	movf	___lldiv@divisor+1,w
  1347  00C9  0225               	subwf	___lldiv@dividend+1,w
  1348  00CA  1D03               	skipz
  1349  00CB  28CE               	goto	u575
  1350  00CC  0820               	movf	___lldiv@divisor,w
  1351  00CD  0224               	subwf	___lldiv@dividend,w
  1352  00CE                     u575:
  1353  00CE  1C03               	skipc
  1354  00CF  28D1               	goto	u571
  1355  00D0  28D2               	goto	u570
  1356  00D1                     u571:
  1357  00D1  28E1               	goto	l1220
  1358  00D2                     u570:
  1359  00D2                     l1216:
  1360  00D2  0820               	movf	___lldiv@divisor,w
  1361  00D3  02A4               	subwf	___lldiv@dividend,f
  1362  00D4  0821               	movf	___lldiv@divisor+1,w
  1363  00D5  1C03               	skipc
  1364  00D6  0F21               	incfsz	___lldiv@divisor+1,w
  1365  00D7  02A5               	subwf	___lldiv@dividend+1,f
  1366  00D8  0822               	movf	___lldiv@divisor+2,w
  1367  00D9  1C03               	skipc
  1368  00DA  0F22               	incfsz	___lldiv@divisor+2,w
  1369  00DB  02A6               	subwf	___lldiv@dividend+2,f
  1370  00DC  0823               	movf	___lldiv@divisor+3,w
  1371  00DD  1C03               	skipc
  1372  00DE  0F23               	incfsz	___lldiv@divisor+3,w
  1373  00DF  02A7               	subwf	___lldiv@dividend+3,f
  1374  00E0                     l1218:
  1375  00E0  1428               	bsf	___lldiv@quotient,0
  1376  00E1                     l1220:
  1377  00E1  3001               	movlw	1
  1378  00E2                     u585:
  1379  00E2  1003               	clrc
  1380  00E3  0CA3               	rrf	___lldiv@divisor+3,f
  1381  00E4  0CA2               	rrf	___lldiv@divisor+2,f
  1382  00E5  0CA1               	rrf	___lldiv@divisor+1,f
  1383  00E6  0CA0               	rrf	___lldiv@divisor,f
  1384  00E7  3EFF               	addlw	-1
  1385  00E8  1D03               	skipz
  1386  00E9  28E2               	goto	u585
  1387  00EA                     l1222:
  1388  00EA  3001               	movlw	1
  1389  00EB  02AC               	subwf	___lldiv@counter,f
  1390  00EC  1D03               	btfss	3,2
  1391  00ED  28EF               	goto	u591
  1392  00EE  28F0               	goto	u590
  1393  00EF                     u591:
  1394  00EF  28B7               	goto	l1212
  1395  00F0                     u590:
  1396  00F0                     l1224:
  1397  00F0  082B               	movf	___lldiv@quotient+3,w
  1398  00F1  00A3               	movwf	?___lldiv+3
  1399  00F2  082A               	movf	___lldiv@quotient+2,w
  1400  00F3  00A2               	movwf	?___lldiv+2
  1401  00F4  0829               	movf	___lldiv@quotient+1,w
  1402  00F5  00A1               	movwf	?___lldiv+1
  1403  00F6  0828               	movf	___lldiv@quotient,w
  1404  00F7  00A0               	movwf	?___lldiv
  1405  00F8                     l340:
  1406  00F8  0008               	return
  1407  00F9                     __end_of___lldiv:
  1408                           
  1409                           	psect	text6
  1410  02C2                     __ptext6:	
  1411 ;; *************** function _EUSART_conf *****************
  1412 ;; Defined at:
  1413 ;;		line 3 in file "EUSART.c"
  1414 ;; Parameters:    Size  Location     Type
  1415 ;;		None
  1416 ;; Auto vars:     Size  Location     Type
  1417 ;;		None
  1418 ;; Return value:  Size  Location     Type
  1419 ;;                  1    wreg      void 
  1420 ;; Registers used:
  1421 ;;		wreg, status,2
  1422 ;; Tracked objects:
  1423 ;;		On entry : 0/0
  1424 ;;		On exit  : 0/0
  1425 ;;		Unchanged: 0/0
  1426 ;; Data sizes:     COMMON   BANK0   BANK1   BANK3   BANK2
  1427 ;;      Params:         0       0       0       0       0
  1428 ;;      Locals:         0       0       0       0       0
  1429 ;;      Temps:          0       0       0       0       0
  1430 ;;      Totals:         0       0       0       0       0
  1431 ;;Total ram usage:        0 bytes
  1432 ;; Hardware stack levels used:    1
  1433 ;; Hardware stack levels required when called:    2
  1434 ;; This function calls:
  1435 ;;		Nothing
  1436 ;; This function is called by:
  1437 ;;		_setup
  1438 ;; This function uses a non-reentrant model
  1439 ;;
  1440                           
  1441                           
  1442                           ;psect for function _EUSART_conf
  1443  02C2                     _EUSART_conf:
  1444  02C2                     l1050:	
  1445                           ;incstack = 0
  1446                           ; Regs used in _EUSART_conf: [wreg+status,2]
  1447                           
  1448                           
  1449                           ;EUSART.c: 4:     TXSTAbits.TXEN = 1;
  1450  02C2  1683               	bsf	3,5	;RP0=1, select bank1
  1451  02C3  1303               	bcf	3,6	;RP1=0, select bank1
  1452  02C4  1698               	bsf	24,5	;volatile
  1453                           
  1454                           ;EUSART.c: 5:     PIE1bits.RCIE = 1;
  1455  02C5  168C               	bsf	12,5	;volatile
  1456                           
  1457                           ;EUSART.c: 6:     PIE1bits.TXIE = 0;
  1458  02C6  120C               	bcf	12,4	;volatile
  1459                           
  1460                           ;EUSART.c: 7:     TXSTAbits.SYNC = 0;
  1461  02C7  1218               	bcf	24,4	;volatile
  1462                           
  1463                           ;EUSART.c: 8:     RCSTAbits.SPEN = 1;
  1464  02C8  1283               	bcf	3,5	;RP0=0, select bank0
  1465  02C9  1303               	bcf	3,6	;RP1=0, select bank0
  1466  02CA  1798               	bsf	24,7	;volatile
  1467                           
  1468                           ;EUSART.c: 9:     TXSTAbits.TX9 = 0;
  1469  02CB  1683               	bsf	3,5	;RP0=1, select bank1
  1470  02CC  1303               	bcf	3,6	;RP1=0, select bank1
  1471  02CD  1318               	bcf	24,6	;volatile
  1472                           
  1473                           ;EUSART.c: 10:     RCSTAbits.RC9 = 0;
  1474  02CE  1283               	bcf	3,5	;RP0=0, select bank0
  1475  02CF  1303               	bcf	3,6	;RP1=0, select bank0
  1476  02D0  1318               	bcf	24,6	;volatile
  1477                           
  1478                           ;EUSART.c: 11:     BAUDCTLbits.BRG16 = 0;
  1479  02D1  1683               	bsf	3,5	;RP0=1, select bank3
  1480  02D2  1703               	bsf	3,6	;RP1=1, select bank3
  1481  02D3  1187               	bcf	7,3	;volatile
  1482  02D4                     l1052:
  1483                           
  1484                           ;EUSART.c: 12:     SPBRG = ((4000000 / 16) / 9600) - 1;
  1485  02D4  3019               	movlw	25
  1486  02D5  1683               	bsf	3,5	;RP0=1, select bank1
  1487  02D6  1303               	bcf	3,6	;RP1=0, select bank1
  1488  02D7  0099               	movwf	25	;volatile
  1489  02D8                     l1054:
  1490                           
  1491                           ;EUSART.c: 13:     TXSTAbits.BRGH = 1;
  1492  02D8  1518               	bsf	24,2	;volatile
  1493  02D9                     l1056:
  1494                           
  1495                           ;EUSART.c: 14:     SPBRGH = 0;
  1496  02D9  019A               	clrf	26	;volatile
  1497  02DA                     l1058:
  1498                           
  1499                           ;EUSART.c: 15:     RCSTAbits.CREN = 1;
  1500  02DA  1283               	bcf	3,5	;RP0=0, select bank0
  1501  02DB  1303               	bcf	3,6	;RP1=0, select bank0
  1502  02DC  1618               	bsf	24,4	;volatile
  1503  02DD                     l202:
  1504  02DD  0008               	return
  1505  02DE                     __end_of_EUSART_conf:
  1506                           
  1507                           	psect	text7
  1508  00F9                     __ptext7:	
  1509 ;; *************** function _SendClock *****************
  1510 ;; Defined at:
  1511 ;;		line 164 in file "I2C_Adafruit.c"
  1512 ;; Parameters:    Size  Location     Type
  1513 ;;		None
  1514 ;; Auto vars:     Size  Location     Type
  1515 ;;		None
  1516 ;; Return value:  Size  Location     Type
  1517 ;;                  1    wreg      void 
  1518 ;; Registers used:
  1519 ;;		wreg, fsr0l, fsr0h, status,2, status,0, pclath, cstack
  1520 ;; Tracked objects:
  1521 ;;		On entry : 0/0
  1522 ;;		On exit  : 0/0
  1523 ;;		Unchanged: 0/0
  1524 ;; Data sizes:     COMMON   BANK0   BANK1   BANK3   BANK2
  1525 ;;      Params:         0       0       0       0       0
  1526 ;;      Locals:         0       0       0       0       0
  1527 ;;      Temps:          1       0       0       0       0
  1528 ;;      Totals:         1       0       0       0       0
  1529 ;;Total ram usage:        1 bytes
  1530 ;; Hardware stack levels used:    1
  1531 ;; Hardware stack levels required when called:    4
  1532 ;; This function calls:
  1533 ;;		_Decena
  1534 ;;		_SendChar
  1535 ;;		_SendString
  1536 ;;		_Unidad
  1537 ;; This function is called by:
  1538 ;;		_main
  1539 ;; This function uses a non-reentrant model
  1540 ;;
  1541                           
  1542                           
  1543                           ;psect for function _SendClock
  1544  00F9                     _SendClock:
  1545  00F9                     l1140:	
  1546                           ;incstack = 0
  1547                           ; Regs used in _SendClock: [wreg-fsr0h+status,2+status,0+pclath+cstack]
  1548                           
  1549                           
  1550                           ;I2C_Adafruit.c: 165:     if (EstadoPiloto == 'M') {
  1551  00F9  304D               	movlw	77
  1552  00FA  1283               	bcf	3,5	;RP0=0, select bank0
  1553  00FB  1303               	bcf	3,6	;RP1=0, select bank0
  1554  00FC  0632               	xorwf	_EstadoPiloto,w
  1555  00FD  1D03               	btfss	3,2
  1556  00FE  2900               	goto	u401
  1557  00FF  2901               	goto	u400
  1558  0100                     u401:
  1559  0100  295B               	goto	l120
  1560  0101                     u400:
  1561  0101                     l1142:
  1562                           
  1563                           ;I2C_Adafruit.c: 166:         SendChar(10);
  1564  0101  300A               	movlw	10
  1565  0102  120A  118A  230F  120A  118A  	fcall	_SendChar
  1566                           
  1567                           ;I2C_Adafruit.c: 167:         SendChar(Decena(h));
  1568  0107  0879               	movf	_h,w
  1569  0108  120A  118A  2303  120A  118A  	fcall	_Decena
  1570  010D  120A  118A  230F  120A  118A  	fcall	_SendChar
  1571                           
  1572                           ;I2C_Adafruit.c: 168:         SendChar(Unidad(h));
  1573  0112  0879               	movf	_h,w
  1574  0113  120A  118A  2350  120A  118A  	fcall	_Unidad
  1575  0118  120A  118A  230F  120A  118A  	fcall	_SendChar
  1576  011D                     l1144:
  1577                           
  1578                           ;I2C_Adafruit.c: 169:         SendString(":");
  1579  011D  3001               	movlw	(low ((STR_1-__stringbase)| (0+32768)))& (0+255)
  1580  011E  120A  118A  22A3  120A  118A  	fcall	_SendString
  1581  0123                     l1146:
  1582                           
  1583                           ;I2C_Adafruit.c: 170:         SendChar(Decena(m));
  1584  0123  0878               	movf	_m,w
  1585  0124  120A  118A  2303  120A  118A  	fcall	_Decena
  1586  0129  120A  118A  230F  120A  118A  	fcall	_SendChar
  1587  012E                     l1148:
  1588                           
  1589                           ;I2C_Adafruit.c: 171:         SendChar(Unidad(m));
  1590  012E  0878               	movf	_m,w
  1591  012F  120A  118A  2350  120A  118A  	fcall	_Unidad
  1592  0134  120A  118A  230F  120A  118A  	fcall	_SendChar
  1593  0139                     l1150:
  1594                           
  1595                           ;I2C_Adafruit.c: 172:         SendString(":");
  1596  0139  3001               	movlw	(low ((STR_1-__stringbase)| (0+32768)))& (0+255)
  1597  013A  120A  118A  22A3  120A  118A  	fcall	_SendString
  1598                           
  1599                           ;I2C_Adafruit.c: 173:         SendChar(Decena(s));
  1600  013F  087A               	movf	_s,w
  1601  0140  120A  118A  2303  120A  118A  	fcall	_Decena
  1602  0145  120A  118A  230F  120A  118A  	fcall	_SendChar
  1603                           
  1604                           ;I2C_Adafruit.c: 174:         SendChar(Unidad(s));
  1605  014A  087A               	movf	_s,w
  1606  014B  120A  118A  2350  120A  118A  	fcall	_Unidad
  1607  0150  120A  118A  230F  120A  118A  	fcall	_SendChar
  1608  0155                     l1152:
  1609                           
  1610                           ;I2C_Adafruit.c: 175:         EstadoPiloto = 'N';
  1611  0155  304E               	movlw	78
  1612  0156  00F6               	movwf	??_SendClock
  1613  0157  0876               	movf	??_SendClock,w
  1614  0158  1283               	bcf	3,5	;RP0=0, select bank0
  1615  0159  1303               	bcf	3,6	;RP1=0, select bank0
  1616  015A  00B2               	movwf	_EstadoPiloto
  1617  015B                     l120:
  1618  015B  0008               	return
  1619  015C                     __end_of_SendClock:
  1620                           
  1621                           	psect	text8
  1622  0350                     __ptext8:	
  1623 ;; *************** function _Unidad *****************
  1624 ;; Defined at:
  1625 ;;		line 149 in file "I2C_Adafruit.c"
  1626 ;; Parameters:    Size  Location     Type
  1627 ;;  valor           1    wreg     unsigned char 
  1628 ;; Auto vars:     Size  Location     Type
  1629 ;;  valor           1    3[COMMON] unsigned char 
  1630 ;; Return value:  Size  Location     Type
  1631 ;;                  1    wreg      unsigned char 
  1632 ;; Registers used:
  1633 ;;		wreg, status,2, status,0
  1634 ;; Tracked objects:
  1635 ;;		On entry : 0/0
  1636 ;;		On exit  : 0/0
  1637 ;;		Unchanged: 0/0
  1638 ;; Data sizes:     COMMON   BANK0   BANK1   BANK3   BANK2
  1639 ;;      Params:         0       0       0       0       0
  1640 ;;      Locals:         1       0       0       0       0
  1641 ;;      Temps:          0       0       0       0       0
  1642 ;;      Totals:         1       0       0       0       0
  1643 ;;Total ram usage:        1 bytes
  1644 ;; Hardware stack levels used:    1
  1645 ;; Hardware stack levels required when called:    2
  1646 ;; This function calls:
  1647 ;;		Nothing
  1648 ;; This function is called by:
  1649 ;;		_SendClock
  1650 ;; This function uses a non-reentrant model
  1651 ;;
  1652                           
  1653                           
  1654                           ;psect for function _Unidad
  1655  0350                     _Unidad:
  1656                           
  1657                           ;incstack = 0
  1658                           ; Regs used in _Unidad: [wreg+status,2+status,0]
  1659                           ;Unidad@valor stored from wreg
  1660  0350  00F3               	movwf	Unidad@valor
  1661  0351                     l1100:
  1662                           
  1663                           ;I2C_Adafruit.c: 150:     return (valor & 0x0F) + 48;
  1664  0351  0873               	movf	Unidad@valor,w
  1665  0352  390F               	andlw	15
  1666  0353  3E30               	addlw	48
  1667  0354                     l113:
  1668  0354  0008               	return
  1669  0355                     __end_of_Unidad:
  1670                           
  1671                           	psect	text9
  1672  02A3                     __ptext9:	
  1673 ;; *************** function _SendString *****************
  1674 ;; Defined at:
  1675 ;;		line 23 in file "EUSART.c"
  1676 ;; Parameters:    Size  Location     Type
  1677 ;;  X               1    wreg     PTR unsigned char 
  1678 ;;		 -> STR_2(2), STR_1(2), 
  1679 ;; Auto vars:     Size  Location     Type
  1680 ;;  X               1    5[COMMON] PTR unsigned char 
  1681 ;;		 -> STR_2(2), STR_1(2), 
  1682 ;; Return value:  Size  Location     Type
  1683 ;;                  1    wreg      void 
  1684 ;; Registers used:
  1685 ;;		wreg, fsr0l, fsr0h, status,2, status,0, pclath, cstack
  1686 ;; Tracked objects:
  1687 ;;		On entry : 0/0
  1688 ;;		On exit  : 0/0
  1689 ;;		Unchanged: 0/0
  1690 ;; Data sizes:     COMMON   BANK0   BANK1   BANK3   BANK2
  1691 ;;      Params:         0       0       0       0       0
  1692 ;;      Locals:         1       0       0       0       0
  1693 ;;      Temps:          1       0       0       0       0
  1694 ;;      Totals:         2       0       0       0       0
  1695 ;;Total ram usage:        2 bytes
  1696 ;; Hardware stack levels used:    1
  1697 ;; Hardware stack levels required when called:    3
  1698 ;; This function calls:
  1699 ;;		_SendChar
  1700 ;; This function is called by:
  1701 ;;		_SendClock
  1702 ;; This function uses a non-reentrant model
  1703 ;;
  1704                           
  1705                           
  1706                           ;psect for function _SendString
  1707  02A3                     _SendString:
  1708                           
  1709                           ;incstack = 0
  1710                           ; Regs used in _SendString: [wreg-fsr0h+status,2+status,0+pclath+cstack]
  1711                           ;SendString@X stored from wreg
  1712  02A3  00F5               	movwf	SendString@X
  1713  02A4                     l1104:
  1714                           
  1715                           ;EUSART.c: 24:     while (*X)
  1716  02A4  2AB5               	goto	l1110
  1717  02A5                     l1106:
  1718                           
  1719                           ;EUSART.c: 25:         SendChar(*X++);
  1720  02A5  0875               	movf	SendString@X,w
  1721  02A6  0084               	movwf	4
  1722  02A7  120A  118A  2348  120A  118A  	fcall	stringdir
  1723  02AC  120A  118A  230F  120A  118A  	fcall	_SendChar
  1724  02B1                     l1108:
  1725  02B1  3001               	movlw	1
  1726  02B2  00F4               	movwf	??_SendString
  1727  02B3  0874               	movf	??_SendString,w
  1728  02B4  07F5               	addwf	SendString@X,f
  1729  02B5                     l1110:
  1730                           
  1731                           ;EUSART.c: 24:     while (*X)
  1732  02B5  0875               	movf	SendString@X,w
  1733  02B6  0084               	movwf	4
  1734  02B7  120A  118A  2348  120A  118A  	fcall	stringdir
  1735  02BC  3A00               	xorlw	0
  1736  02BD  1D03               	skipz
  1737  02BE  2AC0               	goto	u391
  1738  02BF  2AC1               	goto	u390
  1739  02C0                     u391:
  1740  02C0  2AA5               	goto	l1106
  1741  02C1                     u390:
  1742  02C1                     l214:
  1743  02C1  0008               	return
  1744  02C2                     __end_of_SendString:
  1745                           
  1746                           	psect	text10
  1747  030F                     __ptext10:	
  1748 ;; *************** function _SendChar *****************
  1749 ;; Defined at:
  1750 ;;		line 18 in file "EUSART.c"
  1751 ;; Parameters:    Size  Location     Type
  1752 ;;  X               1    wreg     unsigned char 
  1753 ;; Auto vars:     Size  Location     Type
  1754 ;;  X               1    3[COMMON] unsigned char 
  1755 ;; Return value:  Size  Location     Type
  1756 ;;                  1    wreg      void 
  1757 ;; Registers used:
  1758 ;;		wreg
  1759 ;; Tracked objects:
  1760 ;;		On entry : 0/0
  1761 ;;		On exit  : 0/0
  1762 ;;		Unchanged: 0/0
  1763 ;; Data sizes:     COMMON   BANK0   BANK1   BANK3   BANK2
  1764 ;;      Params:         0       0       0       0       0
  1765 ;;      Locals:         1       0       0       0       0
  1766 ;;      Temps:          0       0       0       0       0
  1767 ;;      Totals:         1       0       0       0       0
  1768 ;;Total ram usage:        1 bytes
  1769 ;; Hardware stack levels used:    1
  1770 ;; Hardware stack levels required when called:    2
  1771 ;; This function calls:
  1772 ;;		Nothing
  1773 ;; This function is called by:
  1774 ;;		_SendClock
  1775 ;;		_SendString
  1776 ;; This function uses a non-reentrant model
  1777 ;;
  1778                           
  1779                           
  1780                           ;psect for function _SendChar
  1781  030F                     _SendChar:
  1782                           
  1783                           ;incstack = 0
  1784                           ; Regs used in _SendChar: [wreg]
  1785                           ;SendChar@X stored from wreg
  1786  030F  00F3               	movwf	SendChar@X
  1787  0310                     l1022:
  1788  0310                     l205:	
  1789                           ;EUSART.c: 19:     while (!TXIF);
  1790                           
  1791  0310  1283               	bcf	3,5	;RP0=0, select bank0
  1792  0311  1303               	bcf	3,6	;RP1=0, select bank0
  1793  0312  1E0C               	btfss	12,4	;volatile
  1794  0313  2B15               	goto	u281
  1795  0314  2B16               	goto	u280
  1796  0315                     u281:
  1797  0315  2B10               	goto	l205
  1798  0316                     u280:
  1799  0316                     l1024:
  1800                           
  1801                           ;EUSART.c: 20:     TXREG = X;
  1802  0316  0873               	movf	SendChar@X,w
  1803  0317  0099               	movwf	25	;volatile
  1804  0318                     l208:
  1805  0318  0008               	return
  1806  0319                     __end_of_SendChar:
  1807                           
  1808                           	psect	text11
  1809  0303                     __ptext11:	
  1810 ;; *************** function _Decena *****************
  1811 ;; Defined at:
  1812 ;;		line 145 in file "I2C_Adafruit.c"
  1813 ;; Parameters:    Size  Location     Type
  1814 ;;  valor           1    wreg     unsigned char 
  1815 ;; Auto vars:     Size  Location     Type
  1816 ;;  valor           1    4[COMMON] unsigned char 
  1817 ;; Return value:  Size  Location     Type
  1818 ;;                  1    wreg      unsigned char 
  1819 ;; Registers used:
  1820 ;;		wreg, status,2, status,0
  1821 ;; Tracked objects:
  1822 ;;		On entry : 0/0
  1823 ;;		On exit  : 0/0
  1824 ;;		Unchanged: 0/0
  1825 ;; Data sizes:     COMMON   BANK0   BANK1   BANK3   BANK2
  1826 ;;      Params:         0       0       0       0       0
  1827 ;;      Locals:         1       0       0       0       0
  1828 ;;      Temps:          1       0       0       0       0
  1829 ;;      Totals:         2       0       0       0       0
  1830 ;;Total ram usage:        2 bytes
  1831 ;; Hardware stack levels used:    1
  1832 ;; Hardware stack levels required when called:    2
  1833 ;; This function calls:
  1834 ;;		Nothing
  1835 ;; This function is called by:
  1836 ;;		_SendClock
  1837 ;; This function uses a non-reentrant model
  1838 ;;
  1839                           
  1840                           
  1841                           ;psect for function _Decena
  1842  0303                     _Decena:
  1843                           
  1844                           ;incstack = 0
  1845                           ; Regs used in _Decena: [wreg+status,2+status,0]
  1846                           ;Decena@valor stored from wreg
  1847  0303  00F4               	movwf	Decena@valor
  1848  0304                     l1096:
  1849                           
  1850                           ;I2C_Adafruit.c: 146:     return (valor >> 4) + 48;
  1851  0304  0874               	movf	Decena@valor,w
  1852  0305  00F3               	movwf	??_Decena
  1853  0306  3004               	movlw	4
  1854  0307                     u385:
  1855  0307  1003               	clrc
  1856  0308  0CF3               	rrf	??_Decena,f
  1857  0309  3EFF               	addlw	-1
  1858  030A  1D03               	skipz
  1859  030B  2B07               	goto	u385
  1860  030C  0873               	movf	??_Decena,w
  1861  030D  3E30               	addlw	48
  1862  030E                     l110:
  1863  030E  0008               	return
  1864  030F                     __end_of_Decena:
  1865                           
  1866                           	psect	text12
  1867  0020                     __ptext12:	
  1868 ;; *************** function _Get_time *****************
  1869 ;; Defined at:
  1870 ;;		line 124 in file "I2C_Adafruit.c"
  1871 ;; Parameters:    Size  Location     Type
  1872 ;;		None
  1873 ;; Auto vars:     Size  Location     Type
  1874 ;;		None
  1875 ;; Return value:  Size  Location     Type
  1876 ;;                  1    wreg      void 
  1877 ;; Registers used:
  1878 ;;		wreg, status,2, status,0, pclath, cstack
  1879 ;; Tracked objects:
  1880 ;;		On entry : 0/0
  1881 ;;		On exit  : 0/0
  1882 ;;		Unchanged: 0/0
  1883 ;; Data sizes:     COMMON   BANK0   BANK1   BANK3   BANK2
  1884 ;;      Params:         0       0       0       0       0
  1885 ;;      Locals:         0       0       0       0       0
  1886 ;;      Temps:          0       3       0       0       0
  1887 ;;      Totals:         0       3       0       0       0
  1888 ;;Total ram usage:        3 bytes
  1889 ;; Hardware stack levels used:    1
  1890 ;; Hardware stack levels required when called:    4
  1891 ;; This function calls:
  1892 ;;		_I2C_Master_Read
  1893 ;;		_I2C_Master_RepeatedStart
  1894 ;;		_I2C_Master_Start
  1895 ;;		_I2C_Master_Stop
  1896 ;;		_I2C_Master_Write
  1897 ;; This function is called by:
  1898 ;;		_main
  1899 ;; This function uses a non-reentrant model
  1900 ;;
  1901                           
  1902                           
  1903                           ;psect for function _Get_time
  1904  0020                     _Get_time:
  1905  0020                     l1280:	
  1906                           ;incstack = 0
  1907                           ; Regs used in _Get_time: [wreg+status,2+status,0+pclath+cstack]
  1908                           
  1909                           
  1910                           ;I2C_Adafruit.c: 126:     I2C_Master_Start();
  1911  0020  120A  118A  2336  120A  118A  	fcall	_I2C_Master_Start
  1912                           
  1913                           ;I2C_Adafruit.c: 127:     I2C_Master_Write(0b11010000);
  1914  0025  30D0               	movlw	208
  1915  0026  00F3               	movwf	I2C_Master_Write@d
  1916  0027  3000               	movlw	0
  1917  0028  00F4               	movwf	I2C_Master_Write@d+1
  1918  0029  120A  118A  2319  120A  118A  	fcall	_I2C_Master_Write
  1919                           
  1920                           ;I2C_Adafruit.c: 128:     I2C_Master_Write(0x00);
  1921  002E  3000               	movlw	0
  1922  002F  00F3               	movwf	I2C_Master_Write@d
  1923  0030  00F4               	movwf	I2C_Master_Write@d+1
  1924  0031  120A  118A  2319  120A  118A  	fcall	_I2C_Master_Write
  1925                           
  1926                           ;I2C_Adafruit.c: 132:     I2C_Master_RepeatedStart();
  1927  0036  120A  118A  233F  120A  118A  	fcall	_I2C_Master_RepeatedStart
  1928                           
  1929                           ;I2C_Adafruit.c: 133:     I2C_Master_Write(0b11010001);
  1930  003B  30D1               	movlw	209
  1931  003C  00F3               	movwf	I2C_Master_Write@d
  1932  003D  3000               	movlw	0
  1933  003E  00F4               	movwf	I2C_Master_Write@d+1
  1934  003F  120A  118A  2319  120A  118A  	fcall	_I2C_Master_Write
  1935                           
  1936                           ;I2C_Adafruit.c: 135:     s = I2C_Master_Read(1);
  1937  0044  3001               	movlw	1
  1938  0045  00F3               	movwf	I2C_Master_Read@a
  1939  0046  3000               	movlw	0
  1940  0047  00F4               	movwf	I2C_Master_Read@a+1
  1941  0048  120A  118A  224D  120A  118A  	fcall	_I2C_Master_Read
  1942  004D  0873               	movf	?_I2C_Master_Read,w
  1943  004E  1283               	bcf	3,5	;RP0=0, select bank0
  1944  004F  1303               	bcf	3,6	;RP1=0, select bank0
  1945  0050  00A2               	movwf	??_Get_time
  1946  0051  0822               	movf	??_Get_time,w
  1947  0052  00FA               	movwf	_s
  1948  0053                     l1282:
  1949                           
  1950                           ;I2C_Adafruit.c: 136:     s &= 0b01111111;
  1951  0053  307F               	movlw	127
  1952  0054  00A2               	movwf	??_Get_time
  1953  0055  0822               	movf	??_Get_time,w
  1954  0056  05FA               	andwf	_s,f
  1955  0057                     l1284:
  1956                           
  1957                           ;I2C_Adafruit.c: 137:     m = I2C_Master_Read(1);
  1958  0057  3001               	movlw	1
  1959  0058  00F3               	movwf	I2C_Master_Read@a
  1960  0059  3000               	movlw	0
  1961  005A  00F4               	movwf	I2C_Master_Read@a+1
  1962  005B  120A  118A  224D  120A  118A  	fcall	_I2C_Master_Read
  1963  0060  0873               	movf	?_I2C_Master_Read,w
  1964  0061  1283               	bcf	3,5	;RP0=0, select bank0
  1965  0062  1303               	bcf	3,6	;RP1=0, select bank0
  1966  0063  00A2               	movwf	??_Get_time
  1967  0064  0822               	movf	??_Get_time,w
  1968  0065  00F8               	movwf	_m
  1969                           
  1970                           ;I2C_Adafruit.c: 138:     m &= 0b01111111;
  1971  0066  307F               	movlw	127
  1972  0067  00A2               	movwf	??_Get_time
  1973  0068  0822               	movf	??_Get_time,w
  1974  0069  05F8               	andwf	_m,f
  1975  006A                     l1286:
  1976                           
  1977                           ;I2C_Adafruit.c: 139:     h = I2C_Master_Read(0);
  1978  006A  3000               	movlw	0
  1979  006B  00F3               	movwf	I2C_Master_Read@a
  1980  006C  00F4               	movwf	I2C_Master_Read@a+1
  1981  006D  120A  118A  224D  120A  118A  	fcall	_I2C_Master_Read
  1982  0072  0873               	movf	?_I2C_Master_Read,w
  1983  0073  1283               	bcf	3,5	;RP0=0, select bank0
  1984  0074  1303               	bcf	3,6	;RP1=0, select bank0
  1985  0075  00A2               	movwf	??_Get_time
  1986  0076  0822               	movf	??_Get_time,w
  1987  0077  00F9               	movwf	_h
  1988  0078                     l1288:
  1989                           
  1990                           ;I2C_Adafruit.c: 140:     h &= 0b00111111;
  1991  0078  303F               	movlw	63
  1992  0079  00A2               	movwf	??_Get_time
  1993  007A  0822               	movf	??_Get_time,w
  1994  007B  05F9               	andwf	_h,f
  1995                           
  1996                           ;I2C_Adafruit.c: 141:     I2C_Master_Stop();
  1997  007C  120A  118A  232D  120A  118A  	fcall	_I2C_Master_Stop
  1998  0081                     l1290:
  1999                           
  2000                           ;I2C_Adafruit.c: 142:     _delay((unsigned long)((200)*(4000000/4000.0)));
  2001  0081  3002               	movlw	2
  2002  0082  1283               	bcf	3,5	;RP0=0, select bank0
  2003  0083  1303               	bcf	3,6	;RP1=0, select bank0
  2004  0084  00A4               	movwf	??_Get_time+2
  2005  0085  3004               	movlw	4
  2006  0086  00A3               	movwf	??_Get_time+1
  2007  0087  30B9               	movlw	185
  2008  0088  00A2               	movwf	??_Get_time
  2009  0089                     u707:
  2010  0089  0BA2               	decfsz	??_Get_time,f
  2011  008A  2889               	goto	u707
  2012  008B  0BA3               	decfsz	??_Get_time+1,f
  2013  008C  2889               	goto	u707
  2014  008D  0BA4               	decfsz	??_Get_time+2,f
  2015  008E  2889               	goto	u707
  2016  008F  2890               	nop2
  2017  0090                     l107:
  2018  0090  0008               	return
  2019  0091                     __end_of_Get_time:
  2020                           
  2021                           	psect	text13
  2022  0319                     __ptext13:	
  2023 ;; *************** function _I2C_Master_Write *****************
  2024 ;; Defined at:
  2025 ;;		line 65 in file "I2C.c"
  2026 ;; Parameters:    Size  Location     Type
  2027 ;;  d               2    3[COMMON] unsigned int 
  2028 ;; Auto vars:     Size  Location     Type
  2029 ;;		None
  2030 ;; Return value:  Size  Location     Type
  2031 ;;                  1    wreg      void 
  2032 ;; Registers used:
  2033 ;;		wreg, status,2, status,0, pclath, cstack
  2034 ;; Tracked objects:
  2035 ;;		On entry : 0/0
  2036 ;;		On exit  : 0/0
  2037 ;;		Unchanged: 0/0
  2038 ;; Data sizes:     COMMON   BANK0   BANK1   BANK3   BANK2
  2039 ;;      Params:         2       0       0       0       0
  2040 ;;      Locals:         0       0       0       0       0
  2041 ;;      Temps:          0       0       0       0       0
  2042 ;;      Totals:         2       0       0       0       0
  2043 ;;Total ram usage:        2 bytes
  2044 ;; Hardware stack levels used:    1
  2045 ;; Hardware stack levels required when called:    3
  2046 ;; This function calls:
  2047 ;;		_I2C_Master_Wait
  2048 ;; This function is called by:
  2049 ;;		_RTC_conf
  2050 ;;		_Get_time
  2051 ;;		_SetClock
  2052 ;; This function uses a non-reentrant model
  2053 ;;
  2054                           
  2055                           
  2056                           ;psect for function _I2C_Master_Write
  2057  0319                     _I2C_Master_Write:
  2058  0319                     l1196:	
  2059                           ;incstack = 0
  2060                           ; Regs used in _I2C_Master_Write: [wreg+status,2+status,0+pclath+cstack]
  2061                           
  2062                           
  2063                           ;I2C.c: 65: void I2C_Master_Write(unsigned d);I2C.c: 66: {;I2C.c: 67:     I2C_Master_Wai
      +                          t();
  2064  0319  120A  118A  22F6  120A  118A  	fcall	_I2C_Master_Wait
  2065  031E                     l1198:
  2066                           
  2067                           ;I2C.c: 68:     SSPBUF = d;
  2068  031E  0873               	movf	I2C_Master_Write@d,w
  2069  031F  1283               	bcf	3,5	;RP0=0, select bank0
  2070  0320  1303               	bcf	3,6	;RP1=0, select bank0
  2071  0321  0093               	movwf	19	;volatile
  2072  0322                     l173:
  2073  0322  0008               	return
  2074  0323                     __end_of_I2C_Master_Write:
  2075                           
  2076                           	psect	text14
  2077  032D                     __ptext14:	
  2078 ;; *************** function _I2C_Master_Stop *****************
  2079 ;; Defined at:
  2080 ;;		line 55 in file "I2C.c"
  2081 ;; Parameters:    Size  Location     Type
  2082 ;;		None
  2083 ;; Auto vars:     Size  Location     Type
  2084 ;;		None
  2085 ;; Return value:  Size  Location     Type
  2086 ;;                  1    wreg      void 
  2087 ;; Registers used:
  2088 ;;		wreg, status,2, status,0, pclath, cstack
  2089 ;; Tracked objects:
  2090 ;;		On entry : 0/0
  2091 ;;		On exit  : 0/0
  2092 ;;		Unchanged: 0/0
  2093 ;; Data sizes:     COMMON   BANK0   BANK1   BANK3   BANK2
  2094 ;;      Params:         0       0       0       0       0
  2095 ;;      Locals:         0       0       0       0       0
  2096 ;;      Temps:          0       0       0       0       0
  2097 ;;      Totals:         0       0       0       0       0
  2098 ;;Total ram usage:        0 bytes
  2099 ;; Hardware stack levels used:    1
  2100 ;; Hardware stack levels required when called:    3
  2101 ;; This function calls:
  2102 ;;		_I2C_Master_Wait
  2103 ;; This function is called by:
  2104 ;;		_RTC_conf
  2105 ;;		_Get_time
  2106 ;;		_SetClock
  2107 ;; This function uses a non-reentrant model
  2108 ;;
  2109                           
  2110                           
  2111                           ;psect for function _I2C_Master_Stop
  2112  032D                     _I2C_Master_Stop:
  2113  032D                     l1200:	
  2114                           ;incstack = 0
  2115                           ; Regs used in _I2C_Master_Stop: [wreg+status,2+status,0+pclath+cstack]
  2116                           
  2117                           
  2118                           ;I2C.c: 57:     I2C_Master_Wait();
  2119  032D  120A  118A  22F6  120A  118A  	fcall	_I2C_Master_Wait
  2120  0332                     l1202:
  2121                           
  2122                           ;I2C.c: 58:     SSPCON2bits.PEN = 1;
  2123  0332  1683               	bsf	3,5	;RP0=1, select bank1
  2124  0333  1303               	bcf	3,6	;RP1=0, select bank1
  2125  0334  1511               	bsf	17,2	;volatile
  2126  0335                     l170:
  2127  0335  0008               	return
  2128  0336                     __end_of_I2C_Master_Stop:
  2129                           
  2130                           	psect	text15
  2131  0336                     __ptext15:	
  2132 ;; *************** function _I2C_Master_Start *****************
  2133 ;; Defined at:
  2134 ;;		line 39 in file "I2C.c"
  2135 ;; Parameters:    Size  Location     Type
  2136 ;;		None
  2137 ;; Auto vars:     Size  Location     Type
  2138 ;;		None
  2139 ;; Return value:  Size  Location     Type
  2140 ;;                  1    wreg      void 
  2141 ;; Registers used:
  2142 ;;		wreg, status,2, status,0, pclath, cstack
  2143 ;; Tracked objects:
  2144 ;;		On entry : 0/0
  2145 ;;		On exit  : 0/0
  2146 ;;		Unchanged: 0/0
  2147 ;; Data sizes:     COMMON   BANK0   BANK1   BANK3   BANK2
  2148 ;;      Params:         0       0       0       0       0
  2149 ;;      Locals:         0       0       0       0       0
  2150 ;;      Temps:          0       0       0       0       0
  2151 ;;      Totals:         0       0       0       0       0
  2152 ;;Total ram usage:        0 bytes
  2153 ;; Hardware stack levels used:    1
  2154 ;; Hardware stack levels required when called:    3
  2155 ;; This function calls:
  2156 ;;		_I2C_Master_Wait
  2157 ;; This function is called by:
  2158 ;;		_RTC_conf
  2159 ;;		_Get_time
  2160 ;;		_SetClock
  2161 ;; This function uses a non-reentrant model
  2162 ;;
  2163                           
  2164                           
  2165                           ;psect for function _I2C_Master_Start
  2166  0336                     _I2C_Master_Start:
  2167  0336                     l1192:	
  2168                           ;incstack = 0
  2169                           ; Regs used in _I2C_Master_Start: [wreg+status,2+status,0+pclath+cstack]
  2170                           
  2171                           
  2172                           ;I2C.c: 41:     I2C_Master_Wait();
  2173  0336  120A  118A  22F6  120A  118A  	fcall	_I2C_Master_Wait
  2174  033B                     l1194:
  2175                           
  2176                           ;I2C.c: 42:     SSPCON2bits.SEN = 1;
  2177  033B  1683               	bsf	3,5	;RP0=1, select bank1
  2178  033C  1303               	bcf	3,6	;RP1=0, select bank1
  2179  033D  1411               	bsf	17,0	;volatile
  2180  033E                     l164:
  2181  033E  0008               	return
  2182  033F                     __end_of_I2C_Master_Start:
  2183                           
  2184                           	psect	text16
  2185  033F                     __ptext16:	
  2186 ;; *************** function _I2C_Master_RepeatedStart *****************
  2187 ;; Defined at:
  2188 ;;		line 47 in file "I2C.c"
  2189 ;; Parameters:    Size  Location     Type
  2190 ;;		None
  2191 ;; Auto vars:     Size  Location     Type
  2192 ;;		None
  2193 ;; Return value:  Size  Location     Type
  2194 ;;                  1    wreg      void 
  2195 ;; Registers used:
  2196 ;;		wreg, status,2, status,0, pclath, cstack
  2197 ;; Tracked objects:
  2198 ;;		On entry : 0/0
  2199 ;;		On exit  : 0/0
  2200 ;;		Unchanged: 0/0
  2201 ;; Data sizes:     COMMON   BANK0   BANK1   BANK3   BANK2
  2202 ;;      Params:         0       0       0       0       0
  2203 ;;      Locals:         0       0       0       0       0
  2204 ;;      Temps:          0       0       0       0       0
  2205 ;;      Totals:         0       0       0       0       0
  2206 ;;Total ram usage:        0 bytes
  2207 ;; Hardware stack levels used:    1
  2208 ;; Hardware stack levels required when called:    3
  2209 ;; This function calls:
  2210 ;;		_I2C_Master_Wait
  2211 ;; This function is called by:
  2212 ;;		_Get_time
  2213 ;; This function uses a non-reentrant model
  2214 ;;
  2215                           
  2216                           
  2217                           ;psect for function _I2C_Master_RepeatedStart
  2218  033F                     _I2C_Master_RepeatedStart:
  2219  033F                     l1244:	
  2220                           ;incstack = 0
  2221                           ; Regs used in _I2C_Master_RepeatedStart: [wreg+status,2+status,0+pclath+cstack]
  2222                           
  2223                           
  2224                           ;I2C.c: 49:     I2C_Master_Wait();
  2225  033F  120A  118A  22F6  120A  118A  	fcall	_I2C_Master_Wait
  2226  0344                     l1246:
  2227                           
  2228                           ;I2C.c: 50:     SSPCON2bits.RSEN = 1;
  2229  0344  1683               	bsf	3,5	;RP0=1, select bank1
  2230  0345  1303               	bcf	3,6	;RP1=0, select bank1
  2231  0346  1491               	bsf	17,1	;volatile
  2232  0347                     l167:
  2233  0347  0008               	return
  2234  0348                     __end_of_I2C_Master_RepeatedStart:
  2235                           
  2236                           	psect	text17
  2237  024D                     __ptext17:	
  2238 ;; *************** function _I2C_Master_Read *****************
  2239 ;; Defined at:
  2240 ;;		line 74 in file "I2C.c"
  2241 ;; Parameters:    Size  Location     Type
  2242 ;;  a               2    3[COMMON] unsigned short 
  2243 ;; Auto vars:     Size  Location     Type
  2244 ;;  temp            2    0[BANK0 ] unsigned short 
  2245 ;; Return value:  Size  Location     Type
  2246 ;;                  2    3[COMMON] unsigned short 
  2247 ;; Registers used:
  2248 ;;		wreg, status,2, status,0, pclath, cstack
  2249 ;; Tracked objects:
  2250 ;;		On entry : 0/0
  2251 ;;		On exit  : 0/0
  2252 ;;		Unchanged: 0/0
  2253 ;; Data sizes:     COMMON   BANK0   BANK1   BANK3   BANK2
  2254 ;;      Params:         2       0       0       0       0
  2255 ;;      Locals:         0       2       0       0       0
  2256 ;;      Temps:          2       0       0       0       0
  2257 ;;      Totals:         4       2       0       0       0
  2258 ;;Total ram usage:        6 bytes
  2259 ;; Hardware stack levels used:    1
  2260 ;; Hardware stack levels required when called:    3
  2261 ;; This function calls:
  2262 ;;		_I2C_Master_Wait
  2263 ;; This function is called by:
  2264 ;;		_Get_time
  2265 ;; This function uses a non-reentrant model
  2266 ;;
  2267                           
  2268                           
  2269                           ;psect for function _I2C_Master_Read
  2270  024D                     _I2C_Master_Read:
  2271  024D                     l1248:	
  2272                           ;incstack = 0
  2273                           ; Regs used in _I2C_Master_Read: [wreg+status,2+status,0+pclath+cstack]
  2274                           
  2275                           
  2276                           ;I2C.c: 74: unsigned short I2C_Master_Read(unsigned short a);I2C.c: 75: {;I2C.c: 76:    
      +                           unsigned short temp;;I2C.c: 77:     I2C_Master_Wait();
  2277  024D  120A  118A  22F6  120A  118A  	fcall	_I2C_Master_Wait
  2278  0252                     l1250:
  2279                           
  2280                           ;I2C.c: 78:     SSPCON2bits.RCEN = 1;
  2281  0252  1683               	bsf	3,5	;RP0=1, select bank1
  2282  0253  1303               	bcf	3,6	;RP1=0, select bank1
  2283  0254  1591               	bsf	17,3	;volatile
  2284                           
  2285                           ;I2C.c: 79:     I2C_Master_Wait();
  2286  0255  120A  118A  22F6  120A  118A  	fcall	_I2C_Master_Wait
  2287  025A                     l1252:
  2288                           
  2289                           ;I2C.c: 80:     temp = SSPBUF;
  2290  025A  1283               	bcf	3,5	;RP0=0, select bank0
  2291  025B  1303               	bcf	3,6	;RP1=0, select bank0
  2292  025C  0813               	movf	19,w	;volatile
  2293  025D  00F5               	movwf	??_I2C_Master_Read
  2294  025E  01F6               	clrf	??_I2C_Master_Read+1
  2295  025F  0875               	movf	??_I2C_Master_Read,w
  2296  0260  00A0               	movwf	I2C_Master_Read@temp
  2297  0261  0876               	movf	??_I2C_Master_Read+1,w
  2298  0262  00A1               	movwf	I2C_Master_Read@temp+1
  2299  0263                     l1254:
  2300                           
  2301                           ;I2C.c: 81:     I2C_Master_Wait();
  2302  0263  120A  118A  22F6  120A  118A  	fcall	_I2C_Master_Wait
  2303  0268                     l1256:
  2304                           
  2305                           ;I2C.c: 82:     if(a == 1){
  2306  0268  0373               	decf	I2C_Master_Read@a,w
  2307  0269  0474               	iorwf	I2C_Master_Read@a+1,w
  2308  026A  1D03               	btfss	3,2
  2309  026B  2A6D               	goto	u611
  2310  026C  2A6E               	goto	u610
  2311  026D                     u611:
  2312  026D  2A72               	goto	l176
  2313  026E                     u610:
  2314  026E                     l1258:
  2315                           
  2316                           ;I2C.c: 83:         SSPCON2bits.ACKDT = 0;
  2317  026E  1683               	bsf	3,5	;RP0=1, select bank1
  2318  026F  1303               	bcf	3,6	;RP1=0, select bank1
  2319  0270  1291               	bcf	17,5	;volatile
  2320                           
  2321                           ;I2C.c: 84:     }else{
  2322  0271  2A75               	goto	l177
  2323  0272                     l176:
  2324                           
  2325                           ;I2C.c: 85:         SSPCON2bits.ACKDT = 1;
  2326  0272  1683               	bsf	3,5	;RP0=1, select bank1
  2327  0273  1303               	bcf	3,6	;RP1=0, select bank1
  2328  0274  1691               	bsf	17,5	;volatile
  2329  0275                     l177:	
  2330                           ;I2C.c: 86:     }
  2331                           
  2332                           
  2333                           ;I2C.c: 87:     SSPCON2bits.ACKEN = 1;
  2334  0275  1611               	bsf	17,4	;volatile
  2335  0276                     l1260:
  2336                           
  2337                           ;I2C.c: 88:     return temp;
  2338  0276  1283               	bcf	3,5	;RP0=0, select bank0
  2339  0277  1303               	bcf	3,6	;RP1=0, select bank0
  2340  0278  0821               	movf	I2C_Master_Read@temp+1,w
  2341  0279  00F4               	movwf	?_I2C_Master_Read+1
  2342  027A  0820               	movf	I2C_Master_Read@temp,w
  2343  027B  00F3               	movwf	?_I2C_Master_Read
  2344  027C                     l178:
  2345  027C  0008               	return
  2346  027D                     __end_of_I2C_Master_Read:
  2347                           
  2348                           	psect	text18
  2349  02F6                     __ptext18:	
  2350 ;; *************** function _I2C_Master_Wait *****************
  2351 ;; Defined at:
  2352 ;;		line 32 in file "I2C.c"
  2353 ;; Parameters:    Size  Location     Type
  2354 ;;		None
  2355 ;; Auto vars:     Size  Location     Type
  2356 ;;		None
  2357 ;; Return value:  Size  Location     Type
  2358 ;;                  1    wreg      void 
  2359 ;; Registers used:
  2360 ;;		wreg, status,2
  2361 ;; Tracked objects:
  2362 ;;		On entry : 0/0
  2363 ;;		On exit  : 0/0
  2364 ;;		Unchanged: 0/0
  2365 ;; Data sizes:     COMMON   BANK0   BANK1   BANK3   BANK2
  2366 ;;      Params:         0       0       0       0       0
  2367 ;;      Locals:         0       0       0       0       0
  2368 ;;      Temps:          0       0       0       0       0
  2369 ;;      Totals:         0       0       0       0       0
  2370 ;;Total ram usage:        0 bytes
  2371 ;; Hardware stack levels used:    1
  2372 ;; Hardware stack levels required when called:    2
  2373 ;; This function calls:
  2374 ;;		Nothing
  2375 ;; This function is called by:
  2376 ;;		_I2C_Master_Start
  2377 ;;		_I2C_Master_RepeatedStart
  2378 ;;		_I2C_Master_Stop
  2379 ;;		_I2C_Master_Write
  2380 ;;		_I2C_Master_Read
  2381 ;; This function uses a non-reentrant model
  2382 ;;
  2383                           
  2384                           
  2385                           ;psect for function _I2C_Master_Wait
  2386  02F6                     _I2C_Master_Wait:
  2387  02F6                     l1188:	
  2388                           ;incstack = 0
  2389                           ; Regs used in _I2C_Master_Wait: [wreg+status,2]
  2390                           
  2391  02F6                     l158:	
  2392                           ;I2C.c: 34:     while ((SSPSTAT & 0x04) || (SSPCON2 & 0x1F));
  2393                           
  2394  02F6  1683               	bsf	3,5	;RP0=1, select bank1
  2395  02F7  1303               	bcf	3,6	;RP1=0, select bank1
  2396  02F8  1914               	btfsc	20,2	;volatile
  2397  02F9  2AFB               	goto	u511
  2398  02FA  2AFC               	goto	u510
  2399  02FB                     u511:
  2400  02FB  2AF6               	goto	l158
  2401  02FC                     u510:
  2402  02FC                     l1190:
  2403  02FC  0811               	movf	17,w	;volatile
  2404  02FD  391F               	andlw	31
  2405  02FE  1D03               	btfss	3,2
  2406  02FF  2B01               	goto	u521
  2407  0300  2B02               	goto	u520
  2408  0301                     u521:
  2409  0301  2AF6               	goto	l158
  2410  0302                     u520:
  2411  0302                     l161:
  2412  0302  0008               	return
  2413  0303                     __end_of_I2C_Master_Wait:
  2414                           
  2415                           	psect	text19
  2416  02DE                     __ptext19:	
  2417 ;; *************** function _isr *****************
  2418 ;; Defined at:
  2419 ;;		line 179 in file "I2C_Adafruit.c"
  2420 ;; Parameters:    Size  Location     Type
  2421 ;;		None
  2422 ;; Auto vars:     Size  Location     Type
  2423 ;;		None
  2424 ;; Return value:  Size  Location     Type
  2425 ;;                  1    wreg      void 
  2426 ;; Registers used:
  2427 ;;		wreg, pclath, cstack
  2428 ;; Tracked objects:
  2429 ;;		On entry : 0/0
  2430 ;;		On exit  : 0/0
  2431 ;;		Unchanged: 0/0
  2432 ;; Data sizes:     COMMON   BANK0   BANK1   BANK3   BANK2
  2433 ;;      Params:         0       0       0       0       0
  2434 ;;      Locals:         0       0       0       0       0
  2435 ;;      Temps:          3       0       0       0       0
  2436 ;;      Totals:         3       0       0       0       0
  2437 ;;Total ram usage:        3 bytes
  2438 ;; Hardware stack levels used:    1
  2439 ;; Hardware stack levels required when called:    1
  2440 ;; This function calls:
  2441 ;;		_Receive
  2442 ;; This function is called by:
  2443 ;;		Interrupt level 1
  2444 ;; This function uses a non-reentrant model
  2445 ;;
  2446                           
  2447                           
  2448                           ;psect for function _isr
  2449  02DE                     _isr:
  2450  02DE                     i1l1182:
  2451                           
  2452                           ;I2C_Adafruit.c: 180:     if (PIR1bits.RCIF == 1) {
  2453  02DE  1283               	bcf	3,5	;RP0=0, select bank0
  2454  02DF  1303               	bcf	3,6	;RP1=0, select bank0
  2455  02E0  1E8C               	btfss	12,5	;volatile
  2456  02E1  2AE3               	goto	u50_21
  2457  02E2  2AE4               	goto	u50_20
  2458  02E3                     u50_21:
  2459  02E3  2AEF               	goto	i1l126
  2460  02E4                     u50_20:
  2461  02E4                     i1l1184:
  2462                           
  2463                           ;I2C_Adafruit.c: 181:         EstadoPiloto = Receive();
  2464  02E4  120A  118A  2323  120A  118A  	fcall	_Receive
  2465  02E9  00F0               	movwf	??_isr
  2466  02EA  0870               	movf	??_isr,w
  2467  02EB  1283               	bcf	3,5	;RP0=0, select bank0
  2468  02EC  1303               	bcf	3,6	;RP1=0, select bank0
  2469  02ED  00B2               	movwf	_EstadoPiloto
  2470  02EE                     i1l1186:
  2471                           
  2472                           ;I2C_Adafruit.c: 182:         PIR1bits.RCIF = 0;
  2473  02EE  128C               	bcf	12,5	;volatile
  2474  02EF                     i1l126:
  2475  02EF  0872               	movf	??_isr+2,w
  2476  02F0  008A               	movwf	10
  2477  02F1  0E71               	swapf	??_isr+1,w
  2478  02F2  0083               	movwf	3
  2479  02F3  0EFE               	swapf	btemp,f
  2480  02F4  0E7E               	swapf	btemp,w
  2481  02F5  0009               	retfie
  2482  02F6                     __end_of_isr:
  2483                           
  2484                           	psect	intentry
  2485  0004                     __pintentry:	
  2486                           ;incstack = 0
  2487                           ; Regs used in _isr: [wreg+pclath+cstack]
  2488                           
  2489  0004                     interrupt_function:
  2490  007E                     saved_w	set	btemp
  2491  0004  00FE               	movwf	btemp
  2492  0005  0E03               	swapf	3,w
  2493  0006  00F1               	movwf	??_isr+1
  2494  0007  080A               	movf	10,w
  2495  0008  00F2               	movwf	??_isr+2
  2496  0009  120A  118A  2ADE   	ljmp	_isr
  2497                           
  2498                           	psect	text20
  2499  0323                     __ptext20:	
  2500 ;; *************** function _Receive *****************
  2501 ;; Defined at:
  2502 ;;		line 28 in file "EUSART.c"
  2503 ;; Parameters:    Size  Location     Type
  2504 ;;		None
  2505 ;; Auto vars:     Size  Location     Type
  2506 ;;		None
  2507 ;; Return value:  Size  Location     Type
  2508 ;;                  1    wreg      unsigned char 
  2509 ;; Registers used:
  2510 ;;		wreg
  2511 ;; Tracked objects:
  2512 ;;		On entry : 0/0
  2513 ;;		On exit  : 0/0
  2514 ;;		Unchanged: 0/0
  2515 ;; Data sizes:     COMMON   BANK0   BANK1   BANK3   BANK2
  2516 ;;      Params:         0       0       0       0       0
  2517 ;;      Locals:         0       0       0       0       0
  2518 ;;      Temps:          0       0       0       0       0
  2519 ;;      Totals:         0       0       0       0       0
  2520 ;;Total ram usage:        0 bytes
  2521 ;; Hardware stack levels used:    1
  2522 ;; This function calls:
  2523 ;;		Nothing
  2524 ;; This function is called by:
  2525 ;;		_isr
  2526 ;; This function uses a non-reentrant model
  2527 ;;
  2528                           
  2529                           
  2530                           ;psect for function _Receive
  2531  0323                     _Receive:
  2532  0323                     i1l1154:	
  2533                           ;incstack = 0
  2534                           ; Regs used in _Receive: [wreg]
  2535                           
  2536                           
  2537                           ;EUSART.c: 29:     if (RCSTAbits.OERR) {
  2538  0323  1283               	bcf	3,5	;RP0=0, select bank0
  2539  0324  1303               	bcf	3,6	;RP1=0, select bank0
  2540  0325  1C98               	btfss	24,1	;volatile
  2541  0326  2B28               	goto	u41_21
  2542  0327  2B29               	goto	u41_20
  2543  0328                     u41_21:
  2544  0328  2B2B               	goto	i1l1158
  2545  0329                     u41_20:
  2546  0329                     i1l1156:
  2547                           
  2548                           ;EUSART.c: 30:         RCSTAbits.CREN = 0;
  2549  0329  1218               	bcf	24,4	;volatile
  2550                           
  2551                           ;EUSART.c: 31:         RCSTAbits.CREN = 1;
  2552  032A  1618               	bsf	24,4	;volatile
  2553  032B                     i1l1158:
  2554                           
  2555                           ;EUSART.c: 34:     return RCREG;
  2556  032B  081A               	movf	26,w	;volatile
  2557  032C                     i1l218:
  2558  032C  0008               	return
  2559  032D                     __end_of_Receive:
  2560  007E                     btemp	set	126	;btemp
  2561  007E                     wtemp0	set	126
  2562                           
  2563                           	psect	config
  2564                           
  2565                           ;Config register CONFIG1 @ 0x2007
  2566                           ;	Oscillator Selection bits
  2567                           ;	FOSC = INTRC_CLKOUT, INTOSC oscillator: CLKOUT function on RA6/OSC2/CLKOUT pin, I/O fu
      +                          nction on RA7/OSC1/CLKIN
  2568                           ;	Watchdog Timer Enable bit
  2569                           ;	WDTE = OFF, WDT disabled and can be enabled by SWDTEN bit of the WDTCON register
  2570                           ;	Power-up Timer Enable bit
  2571                           ;	PWRTE = OFF, PWRT disabled
  2572                           ;	RE3/MCLR pin function select bit
  2573                           ;	MCLRE = ON, RE3/MCLR pin function is MCLR
  2574                           ;	Code Protection bit
  2575                           ;	CP = OFF, Program memory code protection is disabled
  2576                           ;	Data Code Protection bit
  2577                           ;	CPD = OFF, Data memory code protection is disabled
  2578                           ;	Brown Out Reset Selection bits
  2579                           ;	BOREN = OFF, BOR disabled
  2580                           ;	Internal External Switchover bit
  2581                           ;	IESO = OFF, Internal/External Switchover mode is disabled
  2582                           ;	Fail-Safe Clock Monitor Enabled bit
  2583                           ;	FCMEN = OFF, Fail-Safe Clock Monitor is disabled
  2584                           ;	Low Voltage Programming Enable bit
  2585                           ;	LVP = OFF, RB3 pin has digital I/O, HV on MCLR must be used for programming
  2586                           ;	In-Circuit Debugger Mode bit
  2587                           ;	DEBUG = 0x1, unprogrammed default
  2588  2007                     	org	8199
  2589  2007  20F5               	dw	8437
  2590                           
  2591                           ;Config register CONFIG2 @ 0x2008
  2592                           ;	Brown-out Reset Selection bit
  2593                           ;	BOR4V = BOR40V, Brown-out Reset set to 4.0V
  2594                           ;	Flash Program Memory Self Write Enable bits
  2595                           ;	WRT = OFF, Write protection off
  2596  2008                     	org	8200
  2597  2008  3FFF               	dw	16383

Data Sizes:
    Strings     2
    Constant    0
    Data        0
    BSS         11
    Persistent  0
    Stack       0

Auto Spaces:
    Space          Size  Autos    Used
    COMMON           14      8      11
    BANK0            80     17      25
    BANK1            80      0       0
    BANK3            96      0       0
    BANK2            96      0       0

Pointer List with Targets:

    SendString@X	PTR unsigned char  size(1) Largest target is 2
		 -> STR_2(CODE[2]), STR_1(CODE[2]), 


Critical Paths under _main in COMMON

    _setup->_I2C_Master_Init
    _SetClock->_I2C_Master_Write
    _RTC_conf->_I2C_Master_Write
    _I2C_Master_Init->___lldiv
    _SendClock->_SendString
    _SendString->_SendChar
    _Get_time->_I2C_Master_Read

Critical Paths under _isr in COMMON

    None.

Critical Paths under _main in BANK0

    _setup->_I2C_Master_Init
    _I2C_Master_Init->___lldiv
    _Get_time->_I2C_Master_Read

Critical Paths under _isr in BANK0

    None.

Critical Paths under _main in BANK1

    None.

Critical Paths under _isr in BANK1

    None.

Critical Paths under _main in BANK3

    None.

Critical Paths under _isr in BANK3

    None.

Critical Paths under _main in BANK2

    None.

Critical Paths under _isr in BANK2

    None.

Call Graph Tables:

 ---------------------------------------------------------------------------------
 (Depth) Function   	        Calls       Base Space   Used Autos Params    Refs
 ---------------------------------------------------------------------------------
 (0) _main                                                 0     0      0    4139
                           _Get_time
                          _SendClock
                              _setup
 ---------------------------------------------------------------------------------
 (1) _setup                                                0     0      0    2584
                        _EUSART_conf
                    _I2C_Master_Init
                           _RTC_conf
                           _SetClock
 ---------------------------------------------------------------------------------
 (2) _SetClock                                             0     0      0    1021
                   _I2C_Master_Start
                    _I2C_Master_Stop
                   _I2C_Master_Write
 ---------------------------------------------------------------------------------
 (2) _RTC_conf                                             0     0      0    1021
                   _I2C_Master_Start
                    _I2C_Master_Stop
                   _I2C_Master_Write
 ---------------------------------------------------------------------------------
 (2) _I2C_Master_Init                                      8     4      4     542
                                              4 COMMON     4     4      0
                                             13 BANK0      4     0      4
                            ___lldiv
 ---------------------------------------------------------------------------------
 (3) ___lldiv                                             14     6      8     421
                                              3 COMMON     1     1      0
                                              0 BANK0     13     5      8
 ---------------------------------------------------------------------------------
 (2) _EUSART_conf                                          0     0      0       0
 ---------------------------------------------------------------------------------
 (1) _SendClock                                            1     1      0     199
                                              6 COMMON     1     1      0
                             _Decena
                           _SendChar
                         _SendString
                             _Unidad
 ---------------------------------------------------------------------------------
 (2) _Unidad                                               1     1      0      22
                                              3 COMMON     1     1      0
 ---------------------------------------------------------------------------------
 (2) _SendString                                           2     2      0     133
                                              4 COMMON     2     2      0
                           _SendChar
 ---------------------------------------------------------------------------------
 (3) _SendChar                                             1     1      0      22
                                              3 COMMON     1     1      0
 ---------------------------------------------------------------------------------
 (2) _Decena                                               2     2      0      22
                                              3 COMMON     2     2      0
 ---------------------------------------------------------------------------------
 (1) _Get_time                                             3     3      0    1356
                                              2 BANK0      3     3      0
                    _I2C_Master_Read
           _I2C_Master_RepeatedStart
                   _I2C_Master_Start
                    _I2C_Master_Stop
                   _I2C_Master_Write
 ---------------------------------------------------------------------------------
 (3) _I2C_Master_Write                                     2     0      2    1021
                                              3 COMMON     2     0      2
                    _I2C_Master_Wait
 ---------------------------------------------------------------------------------
 (3) _I2C_Master_Stop                                      0     0      0       0
                    _I2C_Master_Wait
 ---------------------------------------------------------------------------------
 (3) _I2C_Master_Start                                     0     0      0       0
                    _I2C_Master_Wait
 ---------------------------------------------------------------------------------
 (2) _I2C_Master_RepeatedStart                             0     0      0       0
                    _I2C_Master_Wait
 ---------------------------------------------------------------------------------
 (2) _I2C_Master_Read                                      6     4      2     335
                                              3 COMMON     4     2      2
                                              0 BANK0      2     2      0
                    _I2C_Master_Wait
 ---------------------------------------------------------------------------------
 (4) _I2C_Master_Wait                                      0     0      0       0
 ---------------------------------------------------------------------------------
 Estimated maximum stack depth 4
 ---------------------------------------------------------------------------------
 (Depth) Function   	        Calls       Base Space   Used Autos Params    Refs
 ---------------------------------------------------------------------------------
 (5) _isr                                                  3     3      0       0
                                              0 COMMON     3     3      0
                            _Receive
 ---------------------------------------------------------------------------------
 (6) _Receive                                              0     0      0       0
 ---------------------------------------------------------------------------------
 Estimated maximum stack depth 6
 ---------------------------------------------------------------------------------

 Call Graph Graphs:

 _main (ROOT)
   _Get_time
     _I2C_Master_Read
       _I2C_Master_Wait
     _I2C_Master_RepeatedStart
       _I2C_Master_Wait
     _I2C_Master_Start
       _I2C_Master_Wait
     _I2C_Master_Stop
       _I2C_Master_Wait
     _I2C_Master_Write
       _I2C_Master_Wait
   _SendClock
     _Decena
     _SendChar
     _SendString
       _SendChar
     _Unidad
   _setup
     _EUSART_conf
     _I2C_Master_Init
       ___lldiv
     _RTC_conf
       _I2C_Master_Start
         _I2C_Master_Wait
       _I2C_Master_Stop
         _I2C_Master_Wait
       _I2C_Master_Write
         _I2C_Master_Wait
     _SetClock
       _I2C_Master_Start
         _I2C_Master_Wait
       _I2C_Master_Stop
         _I2C_Master_Wait
       _I2C_Master_Write
         _I2C_Master_Wait

 _isr (ROOT)
   _Receive

 Address spaces:
Name               Size   Autos  Total    Cost      Usage
BITCOMMON            E      0       0       0        0.0%
EEDATA             100      0       0       0        0.0%
NULL                 0      0       0       0        0.0%
CODE                 0      0       0       0        0.0%
COMMON               E      8       B       1       78.6%
BITSFR0              0      0       0       1        0.0%
SFR0                 0      0       0       1        0.0%
BITSFR1              0      0       0       2        0.0%
SFR1                 0      0       0       2        0.0%
STACK                0      0       0       2        0.0%
ABS                  0      0      24       3        0.0%
BITBANK0            50      0       0       4        0.0%
BITSFR3              0      0       0       4        0.0%
SFR3                 0      0       0       4        0.0%
BANK0               50     11      19       5       31.2%
BITSFR2              0      0       0       5        0.0%
SFR2                 0      0       0       5        0.0%
BITBANK1            50      0       0       6        0.0%
BANK1               50      0       0       7        0.0%
BITBANK3            60      0       0       8        0.0%
BANK3               60      0       0       9        0.0%
BITBANK2            60      0       0      10        0.0%
BANK2               60      0       0      11        0.0%
DATA                 0      0      24      12        0.0%


Microchip Technology PIC Macro Assembler V2.31 build 20201012212115 
Symbol Table                                                                                   Thu Mar 11 17:49:45 2021

                                _h 0079                                  _m 0078  
                                _s 007A                                  pc 0002  
                               l94 0191                                 l87 0161  
                               fsr 0004                                l101 0217  
                              l110 030E                                l120 015B  
                              l104 02A2                                l113 0354  
                              l202 02DD                                l107 0090  
                              l116 024C                                l205 0310  
                              l214 02C1                                l208 0318  
                              l161 0302                                l170 0335  
                              l155 01E2                                l164 033E  
                              l340 00F8                                l173 0322  
                              l158 02F6                                l167 0347  
                              l176 0272                                l177 0275  
                              l178 027C                                _GIE 005F  
                              u400 0101                                u401 0100  
                              u510 02FC                                u511 02FB  
                              u520 0302                                u280 0316  
                              u600 01C0                                u521 0301  
                              u281 0315                                u610 026E  
                              u530 00A3                                u611 026D  
                              u531 00A2                                u620 0173  
                              u605 01BB                                u621 0172  
                              u390 02C1                                u550 00B7  
                              u630 017C                                u391 02C0  
                              u551 00B6                                u631 017B  
                              u640 0185                                u385 0307  
                              u545 00A8                                u641 0184  
                              u570 00D2                                u650 018E  
                              u707 0089                                u571 00D1  
                              u651 018D                                u660 0198  
                              u565 00B9                                u661 0194  
                              u590 00F0                                u591 00EF  
                              u575 00CE                                u680 01A2  
                              u585 00E2                                u681 019E  
                              u674 019B                                u694 01A5  
                              _h_d 0033                                _h_u 0034  
                              _m_d 0035                                _m_u 0036  
                              _s_d 0037                                _isr 02DE  
                              _s_u 0038                                fsr0 0004  
                     ?_EUSART_conf 0070                               l1100 0351  
                             l1022 0310                               l1110 02B5  
                             l1200 032D                               l1024 0316  
                             l1104 02A4                               l1202 0332  
                             l1106 02A5                               l1050 02C2  
                             l1210 00B3                               l1108 02B1  
                             l1140 00F9                               l1052 02D4  
                             l1220 00E1                               l1212 00B7  
                             l1204 0091                               l1300 0176  
                             l1150 0139                               l1142 0101  
                             l1054 02D8                               l1222 00EA  
                             l1214 00C0                               l1206 00A3  
                             l1230 01AD                               l1310 018E  
                             l1302 017C                               l1152 0155  
                             l1144 011D                               l1056 02D9  
                             l1216 00D2                               l1208 00A6  
                             l1224 00F0                               l1232 01B0  
                             l1240 027D                               l1304 017F  
                             l1250 0252                               l1146 0123  
                             l1058 02DA                               l1218 00E0  
                             l1234 01DF                               l1242 0218  
                             l1306 0185                               l1260 0276  
                             l1252 025A                               l1244 033F  
                             l1148 012E                               l1236 01E0  
                             l1228 01A9                               l1308 0188  
                             l1190 02FC                               l1254 0263  
                             l1246 0344                               l1238 01E1  
                             l1270 01F5                               l1256 0268  
                             l1248 024D                               l1192 0336  
                             l1280 0020                               l1096 0304  
                             l1272 01F6                               l1264 01E3  
                             l1258 026E                               l1194 033B  
                             l1290 0081                               l1282 0053  
                             l1274 01FB                               l1266 01ED  
                             l1188 02F6                               l1196 0319  
                             l1284 0057                               l1276 020A  
                             l1268 01F4                               l1292 015C  
                             l1198 031E                               l1286 006A  
                             l1278 020F                               l1294 0166  
                             l1288 0078                               l1296 016B  
                             l1298 0173                               ?_isr 0070  
                             STR_1 034E                               STR_2 034E  
                             _PEIE 005E                               _TXIF 0064  
 __end_of_I2C_Master_RepeatedStart 0348                               _main 015C  
                             _time 0031                               btemp 007E  
                             start 000C                    __end_of_Receive 032D  
                            ??_isr 0070                   ?_I2C_Master_Init 002D  
                 ?_I2C_Master_Read 0073                   ?_I2C_Master_Wait 0070  
                 ?_I2C_Master_Stop 0070                              ?_main 0070  
                            _ANSEL 0188                    __end_of___lldiv 00F9  
                            i1l126 02EF                              i1l218 032C  
                            _RCREG 001A                              u41_20 0329  
                            u41_21 0328                              u50_20 02E4  
                            u50_21 02E3                              _SPBRG 0099  
                            _PORTA 0005                              _PORTB 0006  
                            _PORTC 0007                              _PORTD 0008  
                            _TRISA 0085                              _TRISB 0086  
                            _TRISC 0087                              _TRISD 0088  
                            _SSPIE 0463                              _SSPIF 0063  
                            _TXREG 0019                              _setup 01E3  
                 __end_of_RTC_conf 02A3                              pclath 000A  
                            status 0003                              wtemp0 007E  
                  __initialization 000F                   __end_of_Get_time 0091  
                     __end_of_main 01A9                   __end_of_SendChar 0319  
                 __end_of_SetClock 024D                             ??_main 0078  
                ?_I2C_Master_Start 0070                  ?_I2C_Master_Write 0073  
               ??_I2C_Master_Start 0073                 ??_I2C_Master_Write 0075  
                           ?_setup 0070                             _ANSELH 0189  
                           i1l1154 0323                             i1l1156 0329  
                           i1l1158 032B                             i1l1182 02DE  
                           i1l1184 02E4                             i1l1186 02EE  
                       _SendString 02A3                             _SPBRGH 009A  
                           _SSPADD 0093                             _TRISC3 043B  
                           _TRISC4 043C                             _SSPCON 0014  
                           _SSPBUF 0013                             _Decena 0303  
                        ??_Receive 0070           _I2C_Master_RepeatedStart 033F  
                           _Unidad 0350                 __size_of_SendClock 0063  
                        ??___lldiv 0073                             saved_w 007E  
          __end_of__initialization 001C               __size_of_EUSART_conf 001C  
                   __pcstackCOMMON 0070                      __end_of_setup 0218  
                        ?_RTC_conf 0070                        SendString@X 0075  
                __end_of_SendClock 015C                          ?_Get_time 0070  
                          ??_setup 0078                         __pbssBANK0 0031  
                      ?_SendString 0070                            ?_Decena 0070  
                        ?_SendChar 0070                          ?_SetClock 0070  
                       __pmaintext 015C                            ?_Unidad 0070  
                       __pintentry 0004                         ??_RTC_conf 0075  
                          _SSPCON2 0091                         ??_Get_time 0022  
                          _SSPSTAT 0094                         __stringtab 0348  
                       ??_SendChar 0073                         ??_SetClock 0075  
                  __size_of_Decena 000C                            _Receive 0323  
                  __size_of_Unidad 0005                            ___lldiv 0091  
              __size_of_SendString 001F                            __ptext1 01E3  
                          __ptext2 0218                            __ptext3 027D  
                          __ptext4 01A9                            __ptext5 0091  
                          __ptext6 02C2                            __ptext7 00F9  
                          __ptext8 0350                            __ptext9 02A3  
                     __size_of_isr 0018           __size_of_I2C_Master_Init 003A  
         __size_of_I2C_Master_Read 0030           __size_of_I2C_Master_Wait 000D  
         __size_of_I2C_Master_Stop 0009               end_of_initialization 001C  
       ??_I2C_Master_RepeatedStart 0073                        Unidad@valor 0073  
        __size_of_I2C_Master_Start 0009          __size_of_I2C_Master_Write 000A  
                  ___lldiv@divisor 0020                    ___lldiv@counter 002C  
                        _RCSTAbits 0018                   I2C_Master_Init@c 002D  
                 I2C_Master_Read@a 0073                          _PORTAbits 0005  
                        _TRISCbits 0087                          _TXSTAbits 0098  
                   __end_of_Decena 030F                       _EstadoPiloto 0032  
                   __end_of_Unidad 0355                        _BAUDCTLbits 0187  
                        SendChar@X 0073                  __size_of_RTC_conf 0026  
              start_initialization 000F                        __end_of_isr 02F6  
                    ??_EUSART_conf 0073                       ??_SendString 0074  
                ??_I2C_Master_Init 0074                  ??_I2C_Master_Read 0075  
                __size_of_Get_time 0071                          _SendClock 00F9  
                ??_I2C_Master_Wait 0073                  ??_I2C_Master_Stop 0073  
                         ??_Decena 0073                  __size_of_SendChar 000A  
                __size_of_SetClock 0035                           ??_Unidad 0073  
               __end_of_SendString 02C2                        __pbssCOMMON 0078  
                        ___latbits 0002                      __pcstackBANK0 0020  
                       ?_SendClock 0070                __end_of_EUSART_conf 02DE  
                 _I2C_Master_Start 0336                   _I2C_Master_Write 0319  
                         ?_Receive 0070                           ?___lldiv 0020  
                        __pstrings 0348                        Decena@valor 0074  
                   __size_of_setup 0035                  interrupt_function 0004  
                         _PIE1bits 008C                           _PIR1bits 000C  
                         _RTC_conf 027D                        __stringbase 034D  
              I2C_Master_Read@temp 0020                           _Get_time 0020  
                      _EUSART_conf 02C2                        ??_SendClock 0076  
                         _SendChar 030F                           _SetClock 0218  
                 __size_of_Receive 000A  __size_of_I2C_Master_RepeatedStart 0009  
        ?_I2C_Master_RepeatedStart 0070                   __size_of___lldiv 0068  
               __end_of__stringtab 034E                    _I2C_Master_Init 01A9  
                  _I2C_Master_Read 024D                    _I2C_Master_Wait 02F6  
                  _I2C_Master_Stop 032D                           __ptext10 030F  
                         __ptext11 0303                           __ptext20 0323  
                         __ptext12 0020                           __ptext13 0319  
                         __ptext14 032D                           __ptext15 0336  
                         __ptext16 033F                           __ptext17 024D  
                         __ptext18 02F6                           __ptext19 02DE  
                    __size_of_main 004D           __end_of_I2C_Master_Start 033F  
         __end_of_I2C_Master_Write 0323                         _INTCONbits 000B  
                         intlevel1 0000                   ___lldiv@dividend 0024  
                        stringcode 0348            __end_of_I2C_Master_Init 01E3  
          __end_of_I2C_Master_Read 027D            __end_of_I2C_Master_Wait 0303  
          __end_of_I2C_Master_Stop 0336                   ___lldiv@quotient 0028  
                I2C_Master_Write@d 0073                           stringdir 0348  
                         stringtab 0348                        _SSPCON2bits 0091  
